ARM GAS  /tmp/ccGBEXMv.s 			page 1


   1              		.cpu cortex-m3
   2              		.eabi_attribute 20, 1
   3              		.eabi_attribute 21, 1
   4              		.eabi_attribute 23, 3
   5              		.eabi_attribute 24, 1
   6              		.eabi_attribute 25, 1
   7              		.eabi_attribute 26, 1
   8              		.eabi_attribute 30, 6
   9              		.eabi_attribute 34, 1
  10              		.eabi_attribute 18, 4
  11              		.file	"stm32f1xx_ll_exti.c"
  12              		.text
  13              	.Ltext0:
  14              		.cfi_sections	.debug_frame
  15              		.section	.text.LL_EXTI_EnableIT_0_31,"ax",%progbits
  16              		.align	1
  17              		.arch armv7-m
  18              		.syntax unified
  19              		.thumb
  20              		.thumb_func
  21              		.fpu softvfp
  23              	LL_EXTI_EnableIT_0_31:
  24              	.LFB65:
  25              		.file 1 "Drivers/STM32F1xx_HAL_Driver/Inc/stm32f1xx_ll_exti.h"
   1:Drivers/STM32F1xx_HAL_Driver/Inc/stm32f1xx_ll_exti.h **** /**
   2:Drivers/STM32F1xx_HAL_Driver/Inc/stm32f1xx_ll_exti.h ****   ******************************************************************************
   3:Drivers/STM32F1xx_HAL_Driver/Inc/stm32f1xx_ll_exti.h ****   * @file    stm32f1xx_ll_exti.h
   4:Drivers/STM32F1xx_HAL_Driver/Inc/stm32f1xx_ll_exti.h ****   * @author  MCD Application Team
   5:Drivers/STM32F1xx_HAL_Driver/Inc/stm32f1xx_ll_exti.h ****   * @brief   Header file of EXTI LL module.
   6:Drivers/STM32F1xx_HAL_Driver/Inc/stm32f1xx_ll_exti.h ****   ******************************************************************************
   7:Drivers/STM32F1xx_HAL_Driver/Inc/stm32f1xx_ll_exti.h ****   * @attention
   8:Drivers/STM32F1xx_HAL_Driver/Inc/stm32f1xx_ll_exti.h ****   *
   9:Drivers/STM32F1xx_HAL_Driver/Inc/stm32f1xx_ll_exti.h ****   * <h2><center>&copy; Copyright (c) 2016 STMicroelectronics.
  10:Drivers/STM32F1xx_HAL_Driver/Inc/stm32f1xx_ll_exti.h ****   * All rights reserved.</center></h2>
  11:Drivers/STM32F1xx_HAL_Driver/Inc/stm32f1xx_ll_exti.h ****   *
  12:Drivers/STM32F1xx_HAL_Driver/Inc/stm32f1xx_ll_exti.h ****   * This software component is licensed by ST under BSD 3-Clause license,
  13:Drivers/STM32F1xx_HAL_Driver/Inc/stm32f1xx_ll_exti.h ****   * the "License"; You may not use this file except in compliance with the
  14:Drivers/STM32F1xx_HAL_Driver/Inc/stm32f1xx_ll_exti.h ****   * License. You may obtain a copy of the License at:
  15:Drivers/STM32F1xx_HAL_Driver/Inc/stm32f1xx_ll_exti.h ****   *                        opensource.org/licenses/BSD-3-Clause
  16:Drivers/STM32F1xx_HAL_Driver/Inc/stm32f1xx_ll_exti.h ****   *
  17:Drivers/STM32F1xx_HAL_Driver/Inc/stm32f1xx_ll_exti.h ****   ******************************************************************************
  18:Drivers/STM32F1xx_HAL_Driver/Inc/stm32f1xx_ll_exti.h ****   */
  19:Drivers/STM32F1xx_HAL_Driver/Inc/stm32f1xx_ll_exti.h **** 
  20:Drivers/STM32F1xx_HAL_Driver/Inc/stm32f1xx_ll_exti.h **** /* Define to prevent recursive inclusion -------------------------------------*/
  21:Drivers/STM32F1xx_HAL_Driver/Inc/stm32f1xx_ll_exti.h **** #ifndef STM32F1xx_LL_EXTI_H
  22:Drivers/STM32F1xx_HAL_Driver/Inc/stm32f1xx_ll_exti.h **** #define STM32F1xx_LL_EXTI_H
  23:Drivers/STM32F1xx_HAL_Driver/Inc/stm32f1xx_ll_exti.h **** 
  24:Drivers/STM32F1xx_HAL_Driver/Inc/stm32f1xx_ll_exti.h **** #ifdef __cplusplus
  25:Drivers/STM32F1xx_HAL_Driver/Inc/stm32f1xx_ll_exti.h **** extern "C" {
  26:Drivers/STM32F1xx_HAL_Driver/Inc/stm32f1xx_ll_exti.h **** #endif
  27:Drivers/STM32F1xx_HAL_Driver/Inc/stm32f1xx_ll_exti.h **** 
  28:Drivers/STM32F1xx_HAL_Driver/Inc/stm32f1xx_ll_exti.h **** /* Includes ------------------------------------------------------------------*/
  29:Drivers/STM32F1xx_HAL_Driver/Inc/stm32f1xx_ll_exti.h **** #include "stm32f1xx.h"
  30:Drivers/STM32F1xx_HAL_Driver/Inc/stm32f1xx_ll_exti.h **** 
  31:Drivers/STM32F1xx_HAL_Driver/Inc/stm32f1xx_ll_exti.h **** /** @addtogroup STM32F1xx_LL_Driver
  32:Drivers/STM32F1xx_HAL_Driver/Inc/stm32f1xx_ll_exti.h ****   * @{
  33:Drivers/STM32F1xx_HAL_Driver/Inc/stm32f1xx_ll_exti.h ****   */
ARM GAS  /tmp/ccGBEXMv.s 			page 2


  34:Drivers/STM32F1xx_HAL_Driver/Inc/stm32f1xx_ll_exti.h **** 
  35:Drivers/STM32F1xx_HAL_Driver/Inc/stm32f1xx_ll_exti.h **** #if defined (EXTI)
  36:Drivers/STM32F1xx_HAL_Driver/Inc/stm32f1xx_ll_exti.h **** 
  37:Drivers/STM32F1xx_HAL_Driver/Inc/stm32f1xx_ll_exti.h **** /** @defgroup EXTI_LL EXTI
  38:Drivers/STM32F1xx_HAL_Driver/Inc/stm32f1xx_ll_exti.h ****   * @{
  39:Drivers/STM32F1xx_HAL_Driver/Inc/stm32f1xx_ll_exti.h ****   */
  40:Drivers/STM32F1xx_HAL_Driver/Inc/stm32f1xx_ll_exti.h **** 
  41:Drivers/STM32F1xx_HAL_Driver/Inc/stm32f1xx_ll_exti.h **** /* Private types -------------------------------------------------------------*/
  42:Drivers/STM32F1xx_HAL_Driver/Inc/stm32f1xx_ll_exti.h **** /* Private variables ---------------------------------------------------------*/
  43:Drivers/STM32F1xx_HAL_Driver/Inc/stm32f1xx_ll_exti.h **** /* Private constants ---------------------------------------------------------*/
  44:Drivers/STM32F1xx_HAL_Driver/Inc/stm32f1xx_ll_exti.h **** /* Private Macros ------------------------------------------------------------*/
  45:Drivers/STM32F1xx_HAL_Driver/Inc/stm32f1xx_ll_exti.h **** #if defined(USE_FULL_LL_DRIVER)
  46:Drivers/STM32F1xx_HAL_Driver/Inc/stm32f1xx_ll_exti.h **** /** @defgroup EXTI_LL_Private_Macros EXTI Private Macros
  47:Drivers/STM32F1xx_HAL_Driver/Inc/stm32f1xx_ll_exti.h ****   * @{
  48:Drivers/STM32F1xx_HAL_Driver/Inc/stm32f1xx_ll_exti.h ****   */
  49:Drivers/STM32F1xx_HAL_Driver/Inc/stm32f1xx_ll_exti.h **** /**
  50:Drivers/STM32F1xx_HAL_Driver/Inc/stm32f1xx_ll_exti.h ****   * @}
  51:Drivers/STM32F1xx_HAL_Driver/Inc/stm32f1xx_ll_exti.h ****   */
  52:Drivers/STM32F1xx_HAL_Driver/Inc/stm32f1xx_ll_exti.h **** #endif /*USE_FULL_LL_DRIVER*/
  53:Drivers/STM32F1xx_HAL_Driver/Inc/stm32f1xx_ll_exti.h **** /* Exported types ------------------------------------------------------------*/
  54:Drivers/STM32F1xx_HAL_Driver/Inc/stm32f1xx_ll_exti.h **** #if defined(USE_FULL_LL_DRIVER)
  55:Drivers/STM32F1xx_HAL_Driver/Inc/stm32f1xx_ll_exti.h **** /** @defgroup EXTI_LL_ES_INIT EXTI Exported Init structure
  56:Drivers/STM32F1xx_HAL_Driver/Inc/stm32f1xx_ll_exti.h ****   * @{
  57:Drivers/STM32F1xx_HAL_Driver/Inc/stm32f1xx_ll_exti.h ****   */
  58:Drivers/STM32F1xx_HAL_Driver/Inc/stm32f1xx_ll_exti.h **** typedef struct
  59:Drivers/STM32F1xx_HAL_Driver/Inc/stm32f1xx_ll_exti.h **** {
  60:Drivers/STM32F1xx_HAL_Driver/Inc/stm32f1xx_ll_exti.h **** 
  61:Drivers/STM32F1xx_HAL_Driver/Inc/stm32f1xx_ll_exti.h ****   uint32_t Line_0_31;           /*!< Specifies the EXTI lines to be enabled or disabled for Lines i
  62:Drivers/STM32F1xx_HAL_Driver/Inc/stm32f1xx_ll_exti.h ****                                      This parameter can be any combination of @ref EXTI_LL_EC_LINE 
  63:Drivers/STM32F1xx_HAL_Driver/Inc/stm32f1xx_ll_exti.h **** 
  64:Drivers/STM32F1xx_HAL_Driver/Inc/stm32f1xx_ll_exti.h ****   FunctionalState LineCommand;  /*!< Specifies the new state of the selected EXTI lines.
  65:Drivers/STM32F1xx_HAL_Driver/Inc/stm32f1xx_ll_exti.h ****                                      This parameter can be set either to ENABLE or DISABLE */
  66:Drivers/STM32F1xx_HAL_Driver/Inc/stm32f1xx_ll_exti.h **** 
  67:Drivers/STM32F1xx_HAL_Driver/Inc/stm32f1xx_ll_exti.h ****   uint8_t Mode;                 /*!< Specifies the mode for the EXTI lines.
  68:Drivers/STM32F1xx_HAL_Driver/Inc/stm32f1xx_ll_exti.h ****                                      This parameter can be a value of @ref EXTI_LL_EC_MODE. */
  69:Drivers/STM32F1xx_HAL_Driver/Inc/stm32f1xx_ll_exti.h **** 
  70:Drivers/STM32F1xx_HAL_Driver/Inc/stm32f1xx_ll_exti.h ****   uint8_t Trigger;              /*!< Specifies the trigger signal active edge for the EXTI lines.
  71:Drivers/STM32F1xx_HAL_Driver/Inc/stm32f1xx_ll_exti.h ****                                      This parameter can be a value of @ref EXTI_LL_EC_TRIGGER. */
  72:Drivers/STM32F1xx_HAL_Driver/Inc/stm32f1xx_ll_exti.h **** } LL_EXTI_InitTypeDef;
  73:Drivers/STM32F1xx_HAL_Driver/Inc/stm32f1xx_ll_exti.h **** 
  74:Drivers/STM32F1xx_HAL_Driver/Inc/stm32f1xx_ll_exti.h **** /**
  75:Drivers/STM32F1xx_HAL_Driver/Inc/stm32f1xx_ll_exti.h ****   * @}
  76:Drivers/STM32F1xx_HAL_Driver/Inc/stm32f1xx_ll_exti.h ****   */
  77:Drivers/STM32F1xx_HAL_Driver/Inc/stm32f1xx_ll_exti.h **** #endif /*USE_FULL_LL_DRIVER*/
  78:Drivers/STM32F1xx_HAL_Driver/Inc/stm32f1xx_ll_exti.h **** 
  79:Drivers/STM32F1xx_HAL_Driver/Inc/stm32f1xx_ll_exti.h **** /* Exported constants --------------------------------------------------------*/
  80:Drivers/STM32F1xx_HAL_Driver/Inc/stm32f1xx_ll_exti.h **** /** @defgroup EXTI_LL_Exported_Constants EXTI Exported Constants
  81:Drivers/STM32F1xx_HAL_Driver/Inc/stm32f1xx_ll_exti.h ****   * @{
  82:Drivers/STM32F1xx_HAL_Driver/Inc/stm32f1xx_ll_exti.h ****   */
  83:Drivers/STM32F1xx_HAL_Driver/Inc/stm32f1xx_ll_exti.h **** 
  84:Drivers/STM32F1xx_HAL_Driver/Inc/stm32f1xx_ll_exti.h **** /** @defgroup EXTI_LL_EC_LINE LINE
  85:Drivers/STM32F1xx_HAL_Driver/Inc/stm32f1xx_ll_exti.h ****   * @{
  86:Drivers/STM32F1xx_HAL_Driver/Inc/stm32f1xx_ll_exti.h ****   */
  87:Drivers/STM32F1xx_HAL_Driver/Inc/stm32f1xx_ll_exti.h **** #define LL_EXTI_LINE_0                 EXTI_IMR_IM0           /*!< Extended line 0 */
  88:Drivers/STM32F1xx_HAL_Driver/Inc/stm32f1xx_ll_exti.h **** #define LL_EXTI_LINE_1                 EXTI_IMR_IM1           /*!< Extended line 1 */
  89:Drivers/STM32F1xx_HAL_Driver/Inc/stm32f1xx_ll_exti.h **** #define LL_EXTI_LINE_2                 EXTI_IMR_IM2           /*!< Extended line 2 */
  90:Drivers/STM32F1xx_HAL_Driver/Inc/stm32f1xx_ll_exti.h **** #define LL_EXTI_LINE_3                 EXTI_IMR_IM3           /*!< Extended line 3 */
ARM GAS  /tmp/ccGBEXMv.s 			page 3


  91:Drivers/STM32F1xx_HAL_Driver/Inc/stm32f1xx_ll_exti.h **** #define LL_EXTI_LINE_4                 EXTI_IMR_IM4           /*!< Extended line 4 */
  92:Drivers/STM32F1xx_HAL_Driver/Inc/stm32f1xx_ll_exti.h **** #define LL_EXTI_LINE_5                 EXTI_IMR_IM5           /*!< Extended line 5 */
  93:Drivers/STM32F1xx_HAL_Driver/Inc/stm32f1xx_ll_exti.h **** #define LL_EXTI_LINE_6                 EXTI_IMR_IM6           /*!< Extended line 6 */
  94:Drivers/STM32F1xx_HAL_Driver/Inc/stm32f1xx_ll_exti.h **** #define LL_EXTI_LINE_7                 EXTI_IMR_IM7           /*!< Extended line 7 */
  95:Drivers/STM32F1xx_HAL_Driver/Inc/stm32f1xx_ll_exti.h **** #define LL_EXTI_LINE_8                 EXTI_IMR_IM8           /*!< Extended line 8 */
  96:Drivers/STM32F1xx_HAL_Driver/Inc/stm32f1xx_ll_exti.h **** #define LL_EXTI_LINE_9                 EXTI_IMR_IM9           /*!< Extended line 9 */
  97:Drivers/STM32F1xx_HAL_Driver/Inc/stm32f1xx_ll_exti.h **** #define LL_EXTI_LINE_10                EXTI_IMR_IM10          /*!< Extended line 10 */
  98:Drivers/STM32F1xx_HAL_Driver/Inc/stm32f1xx_ll_exti.h **** #define LL_EXTI_LINE_11                EXTI_IMR_IM11          /*!< Extended line 11 */
  99:Drivers/STM32F1xx_HAL_Driver/Inc/stm32f1xx_ll_exti.h **** #define LL_EXTI_LINE_12                EXTI_IMR_IM12          /*!< Extended line 12 */
 100:Drivers/STM32F1xx_HAL_Driver/Inc/stm32f1xx_ll_exti.h **** #define LL_EXTI_LINE_13                EXTI_IMR_IM13          /*!< Extended line 13 */
 101:Drivers/STM32F1xx_HAL_Driver/Inc/stm32f1xx_ll_exti.h **** #define LL_EXTI_LINE_14                EXTI_IMR_IM14          /*!< Extended line 14 */
 102:Drivers/STM32F1xx_HAL_Driver/Inc/stm32f1xx_ll_exti.h **** #define LL_EXTI_LINE_15                EXTI_IMR_IM15          /*!< Extended line 15 */
 103:Drivers/STM32F1xx_HAL_Driver/Inc/stm32f1xx_ll_exti.h **** #if defined(EXTI_IMR_IM16)
 104:Drivers/STM32F1xx_HAL_Driver/Inc/stm32f1xx_ll_exti.h **** #define LL_EXTI_LINE_16                EXTI_IMR_IM16          /*!< Extended line 16 */
 105:Drivers/STM32F1xx_HAL_Driver/Inc/stm32f1xx_ll_exti.h **** #endif
 106:Drivers/STM32F1xx_HAL_Driver/Inc/stm32f1xx_ll_exti.h **** #define LL_EXTI_LINE_17                EXTI_IMR_IM17          /*!< Extended line 17 */
 107:Drivers/STM32F1xx_HAL_Driver/Inc/stm32f1xx_ll_exti.h **** #if defined(EXTI_IMR_IM18)
 108:Drivers/STM32F1xx_HAL_Driver/Inc/stm32f1xx_ll_exti.h **** #define LL_EXTI_LINE_18                EXTI_IMR_IM18          /*!< Extended line 18 */
 109:Drivers/STM32F1xx_HAL_Driver/Inc/stm32f1xx_ll_exti.h **** #endif
 110:Drivers/STM32F1xx_HAL_Driver/Inc/stm32f1xx_ll_exti.h **** #if defined(EXTI_IMR_IM19)
 111:Drivers/STM32F1xx_HAL_Driver/Inc/stm32f1xx_ll_exti.h **** #define LL_EXTI_LINE_19                EXTI_IMR_IM19          /*!< Extended line 19 */
 112:Drivers/STM32F1xx_HAL_Driver/Inc/stm32f1xx_ll_exti.h **** #endif
 113:Drivers/STM32F1xx_HAL_Driver/Inc/stm32f1xx_ll_exti.h **** #if defined(EXTI_IMR_IM20)
 114:Drivers/STM32F1xx_HAL_Driver/Inc/stm32f1xx_ll_exti.h **** #define LL_EXTI_LINE_20                EXTI_IMR_IM20          /*!< Extended line 20 */
 115:Drivers/STM32F1xx_HAL_Driver/Inc/stm32f1xx_ll_exti.h **** #endif
 116:Drivers/STM32F1xx_HAL_Driver/Inc/stm32f1xx_ll_exti.h **** #if defined(EXTI_IMR_IM21)
 117:Drivers/STM32F1xx_HAL_Driver/Inc/stm32f1xx_ll_exti.h **** #define LL_EXTI_LINE_21                EXTI_IMR_IM21          /*!< Extended line 21 */
 118:Drivers/STM32F1xx_HAL_Driver/Inc/stm32f1xx_ll_exti.h **** #endif
 119:Drivers/STM32F1xx_HAL_Driver/Inc/stm32f1xx_ll_exti.h **** #if defined(EXTI_IMR_IM22)
 120:Drivers/STM32F1xx_HAL_Driver/Inc/stm32f1xx_ll_exti.h **** #define LL_EXTI_LINE_22                EXTI_IMR_IM22          /*!< Extended line 22 */
 121:Drivers/STM32F1xx_HAL_Driver/Inc/stm32f1xx_ll_exti.h **** #endif
 122:Drivers/STM32F1xx_HAL_Driver/Inc/stm32f1xx_ll_exti.h **** #if defined(EXTI_IMR_IM23)
 123:Drivers/STM32F1xx_HAL_Driver/Inc/stm32f1xx_ll_exti.h **** #define LL_EXTI_LINE_23                EXTI_IMR_IM23          /*!< Extended line 23 */
 124:Drivers/STM32F1xx_HAL_Driver/Inc/stm32f1xx_ll_exti.h **** #endif
 125:Drivers/STM32F1xx_HAL_Driver/Inc/stm32f1xx_ll_exti.h **** #if defined(EXTI_IMR_IM24)
 126:Drivers/STM32F1xx_HAL_Driver/Inc/stm32f1xx_ll_exti.h **** #define LL_EXTI_LINE_24                EXTI_IMR_IM24          /*!< Extended line 24 */
 127:Drivers/STM32F1xx_HAL_Driver/Inc/stm32f1xx_ll_exti.h **** #endif
 128:Drivers/STM32F1xx_HAL_Driver/Inc/stm32f1xx_ll_exti.h **** #if defined(EXTI_IMR_IM25)
 129:Drivers/STM32F1xx_HAL_Driver/Inc/stm32f1xx_ll_exti.h **** #define LL_EXTI_LINE_25                EXTI_IMR_IM25          /*!< Extended line 25 */
 130:Drivers/STM32F1xx_HAL_Driver/Inc/stm32f1xx_ll_exti.h **** #endif
 131:Drivers/STM32F1xx_HAL_Driver/Inc/stm32f1xx_ll_exti.h **** #if defined(EXTI_IMR_IM26)
 132:Drivers/STM32F1xx_HAL_Driver/Inc/stm32f1xx_ll_exti.h **** #define LL_EXTI_LINE_26                EXTI_IMR_IM26          /*!< Extended line 26 */
 133:Drivers/STM32F1xx_HAL_Driver/Inc/stm32f1xx_ll_exti.h **** #endif
 134:Drivers/STM32F1xx_HAL_Driver/Inc/stm32f1xx_ll_exti.h **** #if defined(EXTI_IMR_IM27)
 135:Drivers/STM32F1xx_HAL_Driver/Inc/stm32f1xx_ll_exti.h **** #define LL_EXTI_LINE_27                EXTI_IMR_IM27          /*!< Extended line 27 */
 136:Drivers/STM32F1xx_HAL_Driver/Inc/stm32f1xx_ll_exti.h **** #endif
 137:Drivers/STM32F1xx_HAL_Driver/Inc/stm32f1xx_ll_exti.h **** #if defined(EXTI_IMR_IM28)
 138:Drivers/STM32F1xx_HAL_Driver/Inc/stm32f1xx_ll_exti.h **** #define LL_EXTI_LINE_28                EXTI_IMR_IM28          /*!< Extended line 28 */
 139:Drivers/STM32F1xx_HAL_Driver/Inc/stm32f1xx_ll_exti.h **** #endif
 140:Drivers/STM32F1xx_HAL_Driver/Inc/stm32f1xx_ll_exti.h **** #if defined(EXTI_IMR_IM29)
 141:Drivers/STM32F1xx_HAL_Driver/Inc/stm32f1xx_ll_exti.h **** #define LL_EXTI_LINE_29                EXTI_IMR_IM29          /*!< Extended line 29 */
 142:Drivers/STM32F1xx_HAL_Driver/Inc/stm32f1xx_ll_exti.h **** #endif
 143:Drivers/STM32F1xx_HAL_Driver/Inc/stm32f1xx_ll_exti.h **** #if defined(EXTI_IMR_IM30)
 144:Drivers/STM32F1xx_HAL_Driver/Inc/stm32f1xx_ll_exti.h **** #define LL_EXTI_LINE_30                EXTI_IMR_IM30          /*!< Extended line 30 */
 145:Drivers/STM32F1xx_HAL_Driver/Inc/stm32f1xx_ll_exti.h **** #endif
 146:Drivers/STM32F1xx_HAL_Driver/Inc/stm32f1xx_ll_exti.h **** #if defined(EXTI_IMR_IM31)
 147:Drivers/STM32F1xx_HAL_Driver/Inc/stm32f1xx_ll_exti.h **** #define LL_EXTI_LINE_31                EXTI_IMR_IM31          /*!< Extended line 31 */
ARM GAS  /tmp/ccGBEXMv.s 			page 4


 148:Drivers/STM32F1xx_HAL_Driver/Inc/stm32f1xx_ll_exti.h **** #endif
 149:Drivers/STM32F1xx_HAL_Driver/Inc/stm32f1xx_ll_exti.h **** #define LL_EXTI_LINE_ALL_0_31          EXTI_IMR_IM            /*!< All Extended line not reserved*/
 150:Drivers/STM32F1xx_HAL_Driver/Inc/stm32f1xx_ll_exti.h **** 
 151:Drivers/STM32F1xx_HAL_Driver/Inc/stm32f1xx_ll_exti.h **** 
 152:Drivers/STM32F1xx_HAL_Driver/Inc/stm32f1xx_ll_exti.h **** #define LL_EXTI_LINE_ALL               (0xFFFFFFFFU)  /*!< All Extended line */
 153:Drivers/STM32F1xx_HAL_Driver/Inc/stm32f1xx_ll_exti.h **** 
 154:Drivers/STM32F1xx_HAL_Driver/Inc/stm32f1xx_ll_exti.h **** #if defined(USE_FULL_LL_DRIVER)
 155:Drivers/STM32F1xx_HAL_Driver/Inc/stm32f1xx_ll_exti.h **** #define LL_EXTI_LINE_NONE              (0x00000000U)  /*!< None Extended line */
 156:Drivers/STM32F1xx_HAL_Driver/Inc/stm32f1xx_ll_exti.h **** #endif /*USE_FULL_LL_DRIVER*/
 157:Drivers/STM32F1xx_HAL_Driver/Inc/stm32f1xx_ll_exti.h **** 
 158:Drivers/STM32F1xx_HAL_Driver/Inc/stm32f1xx_ll_exti.h **** /**
 159:Drivers/STM32F1xx_HAL_Driver/Inc/stm32f1xx_ll_exti.h ****   * @}
 160:Drivers/STM32F1xx_HAL_Driver/Inc/stm32f1xx_ll_exti.h ****   */
 161:Drivers/STM32F1xx_HAL_Driver/Inc/stm32f1xx_ll_exti.h **** #if defined(USE_FULL_LL_DRIVER)
 162:Drivers/STM32F1xx_HAL_Driver/Inc/stm32f1xx_ll_exti.h **** 
 163:Drivers/STM32F1xx_HAL_Driver/Inc/stm32f1xx_ll_exti.h **** /** @defgroup EXTI_LL_EC_MODE Mode
 164:Drivers/STM32F1xx_HAL_Driver/Inc/stm32f1xx_ll_exti.h ****   * @{
 165:Drivers/STM32F1xx_HAL_Driver/Inc/stm32f1xx_ll_exti.h ****   */
 166:Drivers/STM32F1xx_HAL_Driver/Inc/stm32f1xx_ll_exti.h **** #define LL_EXTI_MODE_IT                 ((uint8_t)0x00) /*!< Interrupt Mode */
 167:Drivers/STM32F1xx_HAL_Driver/Inc/stm32f1xx_ll_exti.h **** #define LL_EXTI_MODE_EVENT              ((uint8_t)0x01) /*!< Event Mode */
 168:Drivers/STM32F1xx_HAL_Driver/Inc/stm32f1xx_ll_exti.h **** #define LL_EXTI_MODE_IT_EVENT           ((uint8_t)0x02) /*!< Interrupt & Event Mode */
 169:Drivers/STM32F1xx_HAL_Driver/Inc/stm32f1xx_ll_exti.h **** /**
 170:Drivers/STM32F1xx_HAL_Driver/Inc/stm32f1xx_ll_exti.h ****   * @}
 171:Drivers/STM32F1xx_HAL_Driver/Inc/stm32f1xx_ll_exti.h ****   */
 172:Drivers/STM32F1xx_HAL_Driver/Inc/stm32f1xx_ll_exti.h **** 
 173:Drivers/STM32F1xx_HAL_Driver/Inc/stm32f1xx_ll_exti.h **** /** @defgroup EXTI_LL_EC_TRIGGER Edge Trigger
 174:Drivers/STM32F1xx_HAL_Driver/Inc/stm32f1xx_ll_exti.h ****   * @{
 175:Drivers/STM32F1xx_HAL_Driver/Inc/stm32f1xx_ll_exti.h ****   */
 176:Drivers/STM32F1xx_HAL_Driver/Inc/stm32f1xx_ll_exti.h **** #define LL_EXTI_TRIGGER_NONE            ((uint8_t)0x00) /*!< No Trigger Mode */
 177:Drivers/STM32F1xx_HAL_Driver/Inc/stm32f1xx_ll_exti.h **** #define LL_EXTI_TRIGGER_RISING          ((uint8_t)0x01) /*!< Trigger Rising Mode */
 178:Drivers/STM32F1xx_HAL_Driver/Inc/stm32f1xx_ll_exti.h **** #define LL_EXTI_TRIGGER_FALLING         ((uint8_t)0x02) /*!< Trigger Falling Mode */
 179:Drivers/STM32F1xx_HAL_Driver/Inc/stm32f1xx_ll_exti.h **** #define LL_EXTI_TRIGGER_RISING_FALLING  ((uint8_t)0x03) /*!< Trigger Rising & Falling Mode */
 180:Drivers/STM32F1xx_HAL_Driver/Inc/stm32f1xx_ll_exti.h **** 
 181:Drivers/STM32F1xx_HAL_Driver/Inc/stm32f1xx_ll_exti.h **** /**
 182:Drivers/STM32F1xx_HAL_Driver/Inc/stm32f1xx_ll_exti.h ****   * @}
 183:Drivers/STM32F1xx_HAL_Driver/Inc/stm32f1xx_ll_exti.h ****   */
 184:Drivers/STM32F1xx_HAL_Driver/Inc/stm32f1xx_ll_exti.h **** 
 185:Drivers/STM32F1xx_HAL_Driver/Inc/stm32f1xx_ll_exti.h **** 
 186:Drivers/STM32F1xx_HAL_Driver/Inc/stm32f1xx_ll_exti.h **** #endif /*USE_FULL_LL_DRIVER*/
 187:Drivers/STM32F1xx_HAL_Driver/Inc/stm32f1xx_ll_exti.h **** 
 188:Drivers/STM32F1xx_HAL_Driver/Inc/stm32f1xx_ll_exti.h **** 
 189:Drivers/STM32F1xx_HAL_Driver/Inc/stm32f1xx_ll_exti.h **** /**
 190:Drivers/STM32F1xx_HAL_Driver/Inc/stm32f1xx_ll_exti.h ****   * @}
 191:Drivers/STM32F1xx_HAL_Driver/Inc/stm32f1xx_ll_exti.h ****   */
 192:Drivers/STM32F1xx_HAL_Driver/Inc/stm32f1xx_ll_exti.h **** 
 193:Drivers/STM32F1xx_HAL_Driver/Inc/stm32f1xx_ll_exti.h **** /* Exported macro ------------------------------------------------------------*/
 194:Drivers/STM32F1xx_HAL_Driver/Inc/stm32f1xx_ll_exti.h **** /** @defgroup EXTI_LL_Exported_Macros EXTI Exported Macros
 195:Drivers/STM32F1xx_HAL_Driver/Inc/stm32f1xx_ll_exti.h ****   * @{
 196:Drivers/STM32F1xx_HAL_Driver/Inc/stm32f1xx_ll_exti.h ****   */
 197:Drivers/STM32F1xx_HAL_Driver/Inc/stm32f1xx_ll_exti.h **** 
 198:Drivers/STM32F1xx_HAL_Driver/Inc/stm32f1xx_ll_exti.h **** /** @defgroup EXTI_LL_EM_WRITE_READ Common Write and read registers Macros
 199:Drivers/STM32F1xx_HAL_Driver/Inc/stm32f1xx_ll_exti.h ****   * @{
 200:Drivers/STM32F1xx_HAL_Driver/Inc/stm32f1xx_ll_exti.h ****   */
 201:Drivers/STM32F1xx_HAL_Driver/Inc/stm32f1xx_ll_exti.h **** 
 202:Drivers/STM32F1xx_HAL_Driver/Inc/stm32f1xx_ll_exti.h **** /**
 203:Drivers/STM32F1xx_HAL_Driver/Inc/stm32f1xx_ll_exti.h ****   * @brief  Write a value in EXTI register
 204:Drivers/STM32F1xx_HAL_Driver/Inc/stm32f1xx_ll_exti.h ****   * @param  __REG__ Register to be written
ARM GAS  /tmp/ccGBEXMv.s 			page 5


 205:Drivers/STM32F1xx_HAL_Driver/Inc/stm32f1xx_ll_exti.h ****   * @param  __VALUE__ Value to be written in the register
 206:Drivers/STM32F1xx_HAL_Driver/Inc/stm32f1xx_ll_exti.h ****   * @retval None
 207:Drivers/STM32F1xx_HAL_Driver/Inc/stm32f1xx_ll_exti.h ****   */
 208:Drivers/STM32F1xx_HAL_Driver/Inc/stm32f1xx_ll_exti.h **** #define LL_EXTI_WriteReg(__REG__, __VALUE__) WRITE_REG(EXTI->__REG__, (__VALUE__))
 209:Drivers/STM32F1xx_HAL_Driver/Inc/stm32f1xx_ll_exti.h **** 
 210:Drivers/STM32F1xx_HAL_Driver/Inc/stm32f1xx_ll_exti.h **** /**
 211:Drivers/STM32F1xx_HAL_Driver/Inc/stm32f1xx_ll_exti.h ****   * @brief  Read a value in EXTI register
 212:Drivers/STM32F1xx_HAL_Driver/Inc/stm32f1xx_ll_exti.h ****   * @param  __REG__ Register to be read
 213:Drivers/STM32F1xx_HAL_Driver/Inc/stm32f1xx_ll_exti.h ****   * @retval Register value
 214:Drivers/STM32F1xx_HAL_Driver/Inc/stm32f1xx_ll_exti.h ****   */
 215:Drivers/STM32F1xx_HAL_Driver/Inc/stm32f1xx_ll_exti.h **** #define LL_EXTI_ReadReg(__REG__) READ_REG(EXTI->__REG__)
 216:Drivers/STM32F1xx_HAL_Driver/Inc/stm32f1xx_ll_exti.h **** /**
 217:Drivers/STM32F1xx_HAL_Driver/Inc/stm32f1xx_ll_exti.h ****   * @}
 218:Drivers/STM32F1xx_HAL_Driver/Inc/stm32f1xx_ll_exti.h ****   */
 219:Drivers/STM32F1xx_HAL_Driver/Inc/stm32f1xx_ll_exti.h **** 
 220:Drivers/STM32F1xx_HAL_Driver/Inc/stm32f1xx_ll_exti.h **** 
 221:Drivers/STM32F1xx_HAL_Driver/Inc/stm32f1xx_ll_exti.h **** /**
 222:Drivers/STM32F1xx_HAL_Driver/Inc/stm32f1xx_ll_exti.h ****   * @}
 223:Drivers/STM32F1xx_HAL_Driver/Inc/stm32f1xx_ll_exti.h ****   */
 224:Drivers/STM32F1xx_HAL_Driver/Inc/stm32f1xx_ll_exti.h **** 
 225:Drivers/STM32F1xx_HAL_Driver/Inc/stm32f1xx_ll_exti.h **** 
 226:Drivers/STM32F1xx_HAL_Driver/Inc/stm32f1xx_ll_exti.h **** 
 227:Drivers/STM32F1xx_HAL_Driver/Inc/stm32f1xx_ll_exti.h **** /* Exported functions --------------------------------------------------------*/
 228:Drivers/STM32F1xx_HAL_Driver/Inc/stm32f1xx_ll_exti.h **** /** @defgroup EXTI_LL_Exported_Functions EXTI Exported Functions
 229:Drivers/STM32F1xx_HAL_Driver/Inc/stm32f1xx_ll_exti.h ****  * @{
 230:Drivers/STM32F1xx_HAL_Driver/Inc/stm32f1xx_ll_exti.h ****  */
 231:Drivers/STM32F1xx_HAL_Driver/Inc/stm32f1xx_ll_exti.h **** /** @defgroup EXTI_LL_EF_IT_Management IT_Management
 232:Drivers/STM32F1xx_HAL_Driver/Inc/stm32f1xx_ll_exti.h ****   * @{
 233:Drivers/STM32F1xx_HAL_Driver/Inc/stm32f1xx_ll_exti.h ****   */
 234:Drivers/STM32F1xx_HAL_Driver/Inc/stm32f1xx_ll_exti.h **** 
 235:Drivers/STM32F1xx_HAL_Driver/Inc/stm32f1xx_ll_exti.h **** /**
 236:Drivers/STM32F1xx_HAL_Driver/Inc/stm32f1xx_ll_exti.h ****   * @brief  Enable ExtiLine Interrupt request for Lines in range 0 to 31
 237:Drivers/STM32F1xx_HAL_Driver/Inc/stm32f1xx_ll_exti.h ****   * @note The reset value for the direct or internal lines (see RM)
 238:Drivers/STM32F1xx_HAL_Driver/Inc/stm32f1xx_ll_exti.h ****   *       is set to 1 in order to enable the interrupt by default.
 239:Drivers/STM32F1xx_HAL_Driver/Inc/stm32f1xx_ll_exti.h ****   *       Bits are set automatically at Power on.
 240:Drivers/STM32F1xx_HAL_Driver/Inc/stm32f1xx_ll_exti.h ****   * @rmtoll IMR         IMx           LL_EXTI_EnableIT_0_31
 241:Drivers/STM32F1xx_HAL_Driver/Inc/stm32f1xx_ll_exti.h ****   * @param  ExtiLine This parameter can be one of the following values:
 242:Drivers/STM32F1xx_HAL_Driver/Inc/stm32f1xx_ll_exti.h ****   *         @arg @ref LL_EXTI_LINE_0
 243:Drivers/STM32F1xx_HAL_Driver/Inc/stm32f1xx_ll_exti.h ****   *         @arg @ref LL_EXTI_LINE_1
 244:Drivers/STM32F1xx_HAL_Driver/Inc/stm32f1xx_ll_exti.h ****   *         @arg @ref LL_EXTI_LINE_2
 245:Drivers/STM32F1xx_HAL_Driver/Inc/stm32f1xx_ll_exti.h ****   *         @arg @ref LL_EXTI_LINE_3
 246:Drivers/STM32F1xx_HAL_Driver/Inc/stm32f1xx_ll_exti.h ****   *         @arg @ref LL_EXTI_LINE_4
 247:Drivers/STM32F1xx_HAL_Driver/Inc/stm32f1xx_ll_exti.h ****   *         @arg @ref LL_EXTI_LINE_5
 248:Drivers/STM32F1xx_HAL_Driver/Inc/stm32f1xx_ll_exti.h ****   *         @arg @ref LL_EXTI_LINE_6
 249:Drivers/STM32F1xx_HAL_Driver/Inc/stm32f1xx_ll_exti.h ****   *         @arg @ref LL_EXTI_LINE_7
 250:Drivers/STM32F1xx_HAL_Driver/Inc/stm32f1xx_ll_exti.h ****   *         @arg @ref LL_EXTI_LINE_8
 251:Drivers/STM32F1xx_HAL_Driver/Inc/stm32f1xx_ll_exti.h ****   *         @arg @ref LL_EXTI_LINE_9
 252:Drivers/STM32F1xx_HAL_Driver/Inc/stm32f1xx_ll_exti.h ****   *         @arg @ref LL_EXTI_LINE_10
 253:Drivers/STM32F1xx_HAL_Driver/Inc/stm32f1xx_ll_exti.h ****   *         @arg @ref LL_EXTI_LINE_11
 254:Drivers/STM32F1xx_HAL_Driver/Inc/stm32f1xx_ll_exti.h ****   *         @arg @ref LL_EXTI_LINE_12
 255:Drivers/STM32F1xx_HAL_Driver/Inc/stm32f1xx_ll_exti.h ****   *         @arg @ref LL_EXTI_LINE_13
 256:Drivers/STM32F1xx_HAL_Driver/Inc/stm32f1xx_ll_exti.h ****   *         @arg @ref LL_EXTI_LINE_14
 257:Drivers/STM32F1xx_HAL_Driver/Inc/stm32f1xx_ll_exti.h ****   *         @arg @ref LL_EXTI_LINE_15
 258:Drivers/STM32F1xx_HAL_Driver/Inc/stm32f1xx_ll_exti.h ****   *         @arg @ref LL_EXTI_LINE_16
 259:Drivers/STM32F1xx_HAL_Driver/Inc/stm32f1xx_ll_exti.h ****   *         @arg @ref LL_EXTI_LINE_17
 260:Drivers/STM32F1xx_HAL_Driver/Inc/stm32f1xx_ll_exti.h ****   *         @arg @ref LL_EXTI_LINE_18
 261:Drivers/STM32F1xx_HAL_Driver/Inc/stm32f1xx_ll_exti.h ****   *         @arg @ref LL_EXTI_LINE_19
ARM GAS  /tmp/ccGBEXMv.s 			page 6


 262:Drivers/STM32F1xx_HAL_Driver/Inc/stm32f1xx_ll_exti.h ****   *         @arg @ref LL_EXTI_LINE_ALL_0_31
 263:Drivers/STM32F1xx_HAL_Driver/Inc/stm32f1xx_ll_exti.h ****   * @note   Please check each device line mapping for EXTI Line availability
 264:Drivers/STM32F1xx_HAL_Driver/Inc/stm32f1xx_ll_exti.h ****   * @retval None
 265:Drivers/STM32F1xx_HAL_Driver/Inc/stm32f1xx_ll_exti.h ****   */
 266:Drivers/STM32F1xx_HAL_Driver/Inc/stm32f1xx_ll_exti.h **** __STATIC_INLINE void LL_EXTI_EnableIT_0_31(uint32_t ExtiLine)
 267:Drivers/STM32F1xx_HAL_Driver/Inc/stm32f1xx_ll_exti.h **** {
  26              		.loc 1 267 1
  27              		.cfi_startproc
  28              		@ args = 0, pretend = 0, frame = 8
  29              		@ frame_needed = 1, uses_anonymous_args = 0
  30              		@ link register save eliminated.
  31 0000 80B4     		push	{r7}
  32              	.LCFI0:
  33              		.cfi_def_cfa_offset 4
  34              		.cfi_offset 7, -4
  35 0002 83B0     		sub	sp, sp, #12
  36              	.LCFI1:
  37              		.cfi_def_cfa_offset 16
  38 0004 00AF     		add	r7, sp, #0
  39              	.LCFI2:
  40              		.cfi_def_cfa_register 7
  41 0006 7860     		str	r0, [r7, #4]
 268:Drivers/STM32F1xx_HAL_Driver/Inc/stm32f1xx_ll_exti.h ****   SET_BIT(EXTI->IMR, ExtiLine);
  42              		.loc 1 268 3
  43 0008 054B     		ldr	r3, .L2
  44 000a 1A68     		ldr	r2, [r3]
  45 000c 0449     		ldr	r1, .L2
  46 000e 7B68     		ldr	r3, [r7, #4]
  47 0010 1343     		orrs	r3, r3, r2
  48 0012 0B60     		str	r3, [r1]
 269:Drivers/STM32F1xx_HAL_Driver/Inc/stm32f1xx_ll_exti.h **** }
  49              		.loc 1 269 1
  50 0014 00BF     		nop
  51 0016 0C37     		adds	r7, r7, #12
  52              	.LCFI3:
  53              		.cfi_def_cfa_offset 4
  54 0018 BD46     		mov	sp, r7
  55              	.LCFI4:
  56              		.cfi_def_cfa_register 13
  57              		@ sp needed
  58 001a 80BC     		pop	{r7}
  59              	.LCFI5:
  60              		.cfi_restore 7
  61              		.cfi_def_cfa_offset 0
  62 001c 7047     		bx	lr
  63              	.L3:
  64 001e 00BF     		.align	2
  65              	.L2:
  66 0020 00040140 		.word	1073808384
  67              		.cfi_endproc
  68              	.LFE65:
  70              		.section	.text.LL_EXTI_DisableIT_0_31,"ax",%progbits
  71              		.align	1
  72              		.syntax unified
  73              		.thumb
  74              		.thumb_func
  75              		.fpu softvfp
ARM GAS  /tmp/ccGBEXMv.s 			page 7


  77              	LL_EXTI_DisableIT_0_31:
  78              	.LFB66:
 270:Drivers/STM32F1xx_HAL_Driver/Inc/stm32f1xx_ll_exti.h **** 
 271:Drivers/STM32F1xx_HAL_Driver/Inc/stm32f1xx_ll_exti.h **** /**
 272:Drivers/STM32F1xx_HAL_Driver/Inc/stm32f1xx_ll_exti.h ****   * @brief  Disable ExtiLine Interrupt request for Lines in range 0 to 31
 273:Drivers/STM32F1xx_HAL_Driver/Inc/stm32f1xx_ll_exti.h ****   * @note The reset value for the direct or internal lines (see RM)
 274:Drivers/STM32F1xx_HAL_Driver/Inc/stm32f1xx_ll_exti.h ****   *       is set to 1 in order to enable the interrupt by default.
 275:Drivers/STM32F1xx_HAL_Driver/Inc/stm32f1xx_ll_exti.h ****   *       Bits are set automatically at Power on.
 276:Drivers/STM32F1xx_HAL_Driver/Inc/stm32f1xx_ll_exti.h ****   * @rmtoll IMR         IMx           LL_EXTI_DisableIT_0_31
 277:Drivers/STM32F1xx_HAL_Driver/Inc/stm32f1xx_ll_exti.h ****   * @param  ExtiLine This parameter can be one of the following values:
 278:Drivers/STM32F1xx_HAL_Driver/Inc/stm32f1xx_ll_exti.h ****   *         @arg @ref LL_EXTI_LINE_0
 279:Drivers/STM32F1xx_HAL_Driver/Inc/stm32f1xx_ll_exti.h ****   *         @arg @ref LL_EXTI_LINE_1
 280:Drivers/STM32F1xx_HAL_Driver/Inc/stm32f1xx_ll_exti.h ****   *         @arg @ref LL_EXTI_LINE_2
 281:Drivers/STM32F1xx_HAL_Driver/Inc/stm32f1xx_ll_exti.h ****   *         @arg @ref LL_EXTI_LINE_3
 282:Drivers/STM32F1xx_HAL_Driver/Inc/stm32f1xx_ll_exti.h ****   *         @arg @ref LL_EXTI_LINE_4
 283:Drivers/STM32F1xx_HAL_Driver/Inc/stm32f1xx_ll_exti.h ****   *         @arg @ref LL_EXTI_LINE_5
 284:Drivers/STM32F1xx_HAL_Driver/Inc/stm32f1xx_ll_exti.h ****   *         @arg @ref LL_EXTI_LINE_6
 285:Drivers/STM32F1xx_HAL_Driver/Inc/stm32f1xx_ll_exti.h ****   *         @arg @ref LL_EXTI_LINE_7
 286:Drivers/STM32F1xx_HAL_Driver/Inc/stm32f1xx_ll_exti.h ****   *         @arg @ref LL_EXTI_LINE_8
 287:Drivers/STM32F1xx_HAL_Driver/Inc/stm32f1xx_ll_exti.h ****   *         @arg @ref LL_EXTI_LINE_9
 288:Drivers/STM32F1xx_HAL_Driver/Inc/stm32f1xx_ll_exti.h ****   *         @arg @ref LL_EXTI_LINE_10
 289:Drivers/STM32F1xx_HAL_Driver/Inc/stm32f1xx_ll_exti.h ****   *         @arg @ref LL_EXTI_LINE_11
 290:Drivers/STM32F1xx_HAL_Driver/Inc/stm32f1xx_ll_exti.h ****   *         @arg @ref LL_EXTI_LINE_12
 291:Drivers/STM32F1xx_HAL_Driver/Inc/stm32f1xx_ll_exti.h ****   *         @arg @ref LL_EXTI_LINE_13
 292:Drivers/STM32F1xx_HAL_Driver/Inc/stm32f1xx_ll_exti.h ****   *         @arg @ref LL_EXTI_LINE_14
 293:Drivers/STM32F1xx_HAL_Driver/Inc/stm32f1xx_ll_exti.h ****   *         @arg @ref LL_EXTI_LINE_15
 294:Drivers/STM32F1xx_HAL_Driver/Inc/stm32f1xx_ll_exti.h ****   *         @arg @ref LL_EXTI_LINE_16
 295:Drivers/STM32F1xx_HAL_Driver/Inc/stm32f1xx_ll_exti.h ****   *         @arg @ref LL_EXTI_LINE_17
 296:Drivers/STM32F1xx_HAL_Driver/Inc/stm32f1xx_ll_exti.h ****   *         @arg @ref LL_EXTI_LINE_18
 297:Drivers/STM32F1xx_HAL_Driver/Inc/stm32f1xx_ll_exti.h ****   *         @arg @ref LL_EXTI_LINE_19
 298:Drivers/STM32F1xx_HAL_Driver/Inc/stm32f1xx_ll_exti.h ****   *         @arg @ref LL_EXTI_LINE_ALL_0_31
 299:Drivers/STM32F1xx_HAL_Driver/Inc/stm32f1xx_ll_exti.h ****   * @note   Please check each device line mapping for EXTI Line availability
 300:Drivers/STM32F1xx_HAL_Driver/Inc/stm32f1xx_ll_exti.h ****   * @retval None
 301:Drivers/STM32F1xx_HAL_Driver/Inc/stm32f1xx_ll_exti.h ****   */
 302:Drivers/STM32F1xx_HAL_Driver/Inc/stm32f1xx_ll_exti.h **** __STATIC_INLINE void LL_EXTI_DisableIT_0_31(uint32_t ExtiLine)
 303:Drivers/STM32F1xx_HAL_Driver/Inc/stm32f1xx_ll_exti.h **** {
  79              		.loc 1 303 1
  80              		.cfi_startproc
  81              		@ args = 0, pretend = 0, frame = 8
  82              		@ frame_needed = 1, uses_anonymous_args = 0
  83              		@ link register save eliminated.
  84 0000 80B4     		push	{r7}
  85              	.LCFI6:
  86              		.cfi_def_cfa_offset 4
  87              		.cfi_offset 7, -4
  88 0002 83B0     		sub	sp, sp, #12
  89              	.LCFI7:
  90              		.cfi_def_cfa_offset 16
  91 0004 00AF     		add	r7, sp, #0
  92              	.LCFI8:
  93              		.cfi_def_cfa_register 7
  94 0006 7860     		str	r0, [r7, #4]
 304:Drivers/STM32F1xx_HAL_Driver/Inc/stm32f1xx_ll_exti.h ****   CLEAR_BIT(EXTI->IMR, ExtiLine);
  95              		.loc 1 304 3
  96 0008 054B     		ldr	r3, .L5
  97 000a 1A68     		ldr	r2, [r3]
  98 000c 7B68     		ldr	r3, [r7, #4]
ARM GAS  /tmp/ccGBEXMv.s 			page 8


  99 000e DB43     		mvns	r3, r3
 100 0010 0349     		ldr	r1, .L5
 101 0012 1340     		ands	r3, r3, r2
 102 0014 0B60     		str	r3, [r1]
 305:Drivers/STM32F1xx_HAL_Driver/Inc/stm32f1xx_ll_exti.h **** }
 103              		.loc 1 305 1
 104 0016 00BF     		nop
 105 0018 0C37     		adds	r7, r7, #12
 106              	.LCFI9:
 107              		.cfi_def_cfa_offset 4
 108 001a BD46     		mov	sp, r7
 109              	.LCFI10:
 110              		.cfi_def_cfa_register 13
 111              		@ sp needed
 112 001c 80BC     		pop	{r7}
 113              	.LCFI11:
 114              		.cfi_restore 7
 115              		.cfi_def_cfa_offset 0
 116 001e 7047     		bx	lr
 117              	.L6:
 118              		.align	2
 119              	.L5:
 120 0020 00040140 		.word	1073808384
 121              		.cfi_endproc
 122              	.LFE66:
 124              		.section	.text.LL_EXTI_EnableEvent_0_31,"ax",%progbits
 125              		.align	1
 126              		.syntax unified
 127              		.thumb
 128              		.thumb_func
 129              		.fpu softvfp
 131              	LL_EXTI_EnableEvent_0_31:
 132              	.LFB68:
 306:Drivers/STM32F1xx_HAL_Driver/Inc/stm32f1xx_ll_exti.h **** 
 307:Drivers/STM32F1xx_HAL_Driver/Inc/stm32f1xx_ll_exti.h **** 
 308:Drivers/STM32F1xx_HAL_Driver/Inc/stm32f1xx_ll_exti.h **** /**
 309:Drivers/STM32F1xx_HAL_Driver/Inc/stm32f1xx_ll_exti.h ****   * @brief  Indicate if ExtiLine Interrupt request is enabled for Lines in range 0 to 31
 310:Drivers/STM32F1xx_HAL_Driver/Inc/stm32f1xx_ll_exti.h ****   * @note The reset value for the direct or internal lines (see RM)
 311:Drivers/STM32F1xx_HAL_Driver/Inc/stm32f1xx_ll_exti.h ****   *       is set to 1 in order to enable the interrupt by default.
 312:Drivers/STM32F1xx_HAL_Driver/Inc/stm32f1xx_ll_exti.h ****   *       Bits are set automatically at Power on.
 313:Drivers/STM32F1xx_HAL_Driver/Inc/stm32f1xx_ll_exti.h ****   * @rmtoll IMR         IMx           LL_EXTI_IsEnabledIT_0_31
 314:Drivers/STM32F1xx_HAL_Driver/Inc/stm32f1xx_ll_exti.h ****   * @param  ExtiLine This parameter can be one of the following values:
 315:Drivers/STM32F1xx_HAL_Driver/Inc/stm32f1xx_ll_exti.h ****   *         @arg @ref LL_EXTI_LINE_0
 316:Drivers/STM32F1xx_HAL_Driver/Inc/stm32f1xx_ll_exti.h ****   *         @arg @ref LL_EXTI_LINE_1
 317:Drivers/STM32F1xx_HAL_Driver/Inc/stm32f1xx_ll_exti.h ****   *         @arg @ref LL_EXTI_LINE_2
 318:Drivers/STM32F1xx_HAL_Driver/Inc/stm32f1xx_ll_exti.h ****   *         @arg @ref LL_EXTI_LINE_3
 319:Drivers/STM32F1xx_HAL_Driver/Inc/stm32f1xx_ll_exti.h ****   *         @arg @ref LL_EXTI_LINE_4
 320:Drivers/STM32F1xx_HAL_Driver/Inc/stm32f1xx_ll_exti.h ****   *         @arg @ref LL_EXTI_LINE_5
 321:Drivers/STM32F1xx_HAL_Driver/Inc/stm32f1xx_ll_exti.h ****   *         @arg @ref LL_EXTI_LINE_6
 322:Drivers/STM32F1xx_HAL_Driver/Inc/stm32f1xx_ll_exti.h ****   *         @arg @ref LL_EXTI_LINE_7
 323:Drivers/STM32F1xx_HAL_Driver/Inc/stm32f1xx_ll_exti.h ****   *         @arg @ref LL_EXTI_LINE_8
 324:Drivers/STM32F1xx_HAL_Driver/Inc/stm32f1xx_ll_exti.h ****   *         @arg @ref LL_EXTI_LINE_9
 325:Drivers/STM32F1xx_HAL_Driver/Inc/stm32f1xx_ll_exti.h ****   *         @arg @ref LL_EXTI_LINE_10
 326:Drivers/STM32F1xx_HAL_Driver/Inc/stm32f1xx_ll_exti.h ****   *         @arg @ref LL_EXTI_LINE_11
 327:Drivers/STM32F1xx_HAL_Driver/Inc/stm32f1xx_ll_exti.h ****   *         @arg @ref LL_EXTI_LINE_12
 328:Drivers/STM32F1xx_HAL_Driver/Inc/stm32f1xx_ll_exti.h ****   *         @arg @ref LL_EXTI_LINE_13
 329:Drivers/STM32F1xx_HAL_Driver/Inc/stm32f1xx_ll_exti.h ****   *         @arg @ref LL_EXTI_LINE_14
ARM GAS  /tmp/ccGBEXMv.s 			page 9


 330:Drivers/STM32F1xx_HAL_Driver/Inc/stm32f1xx_ll_exti.h ****   *         @arg @ref LL_EXTI_LINE_15
 331:Drivers/STM32F1xx_HAL_Driver/Inc/stm32f1xx_ll_exti.h ****   *         @arg @ref LL_EXTI_LINE_16
 332:Drivers/STM32F1xx_HAL_Driver/Inc/stm32f1xx_ll_exti.h ****   *         @arg @ref LL_EXTI_LINE_17
 333:Drivers/STM32F1xx_HAL_Driver/Inc/stm32f1xx_ll_exti.h ****   *         @arg @ref LL_EXTI_LINE_18
 334:Drivers/STM32F1xx_HAL_Driver/Inc/stm32f1xx_ll_exti.h ****   *         @arg @ref LL_EXTI_LINE_19
 335:Drivers/STM32F1xx_HAL_Driver/Inc/stm32f1xx_ll_exti.h ****   *         @arg @ref LL_EXTI_LINE_ALL_0_31
 336:Drivers/STM32F1xx_HAL_Driver/Inc/stm32f1xx_ll_exti.h ****   * @note   Please check each device line mapping for EXTI Line availability
 337:Drivers/STM32F1xx_HAL_Driver/Inc/stm32f1xx_ll_exti.h ****   * @retval State of bit (1 or 0).
 338:Drivers/STM32F1xx_HAL_Driver/Inc/stm32f1xx_ll_exti.h ****   */
 339:Drivers/STM32F1xx_HAL_Driver/Inc/stm32f1xx_ll_exti.h **** __STATIC_INLINE uint32_t LL_EXTI_IsEnabledIT_0_31(uint32_t ExtiLine)
 340:Drivers/STM32F1xx_HAL_Driver/Inc/stm32f1xx_ll_exti.h **** {
 341:Drivers/STM32F1xx_HAL_Driver/Inc/stm32f1xx_ll_exti.h ****   return (READ_BIT(EXTI->IMR, ExtiLine) == (ExtiLine));
 342:Drivers/STM32F1xx_HAL_Driver/Inc/stm32f1xx_ll_exti.h **** }
 343:Drivers/STM32F1xx_HAL_Driver/Inc/stm32f1xx_ll_exti.h **** 
 344:Drivers/STM32F1xx_HAL_Driver/Inc/stm32f1xx_ll_exti.h **** 
 345:Drivers/STM32F1xx_HAL_Driver/Inc/stm32f1xx_ll_exti.h **** /**
 346:Drivers/STM32F1xx_HAL_Driver/Inc/stm32f1xx_ll_exti.h ****   * @}
 347:Drivers/STM32F1xx_HAL_Driver/Inc/stm32f1xx_ll_exti.h ****   */
 348:Drivers/STM32F1xx_HAL_Driver/Inc/stm32f1xx_ll_exti.h **** 
 349:Drivers/STM32F1xx_HAL_Driver/Inc/stm32f1xx_ll_exti.h **** /** @defgroup EXTI_LL_EF_Event_Management Event_Management
 350:Drivers/STM32F1xx_HAL_Driver/Inc/stm32f1xx_ll_exti.h ****   * @{
 351:Drivers/STM32F1xx_HAL_Driver/Inc/stm32f1xx_ll_exti.h ****   */
 352:Drivers/STM32F1xx_HAL_Driver/Inc/stm32f1xx_ll_exti.h **** 
 353:Drivers/STM32F1xx_HAL_Driver/Inc/stm32f1xx_ll_exti.h **** /**
 354:Drivers/STM32F1xx_HAL_Driver/Inc/stm32f1xx_ll_exti.h ****   * @brief  Enable ExtiLine Event request for Lines in range 0 to 31
 355:Drivers/STM32F1xx_HAL_Driver/Inc/stm32f1xx_ll_exti.h ****   * @rmtoll EMR         EMx           LL_EXTI_EnableEvent_0_31
 356:Drivers/STM32F1xx_HAL_Driver/Inc/stm32f1xx_ll_exti.h ****   * @param  ExtiLine This parameter can be one of the following values:
 357:Drivers/STM32F1xx_HAL_Driver/Inc/stm32f1xx_ll_exti.h ****   *         @arg @ref LL_EXTI_LINE_0
 358:Drivers/STM32F1xx_HAL_Driver/Inc/stm32f1xx_ll_exti.h ****   *         @arg @ref LL_EXTI_LINE_1
 359:Drivers/STM32F1xx_HAL_Driver/Inc/stm32f1xx_ll_exti.h ****   *         @arg @ref LL_EXTI_LINE_2
 360:Drivers/STM32F1xx_HAL_Driver/Inc/stm32f1xx_ll_exti.h ****   *         @arg @ref LL_EXTI_LINE_3
 361:Drivers/STM32F1xx_HAL_Driver/Inc/stm32f1xx_ll_exti.h ****   *         @arg @ref LL_EXTI_LINE_4
 362:Drivers/STM32F1xx_HAL_Driver/Inc/stm32f1xx_ll_exti.h ****   *         @arg @ref LL_EXTI_LINE_5
 363:Drivers/STM32F1xx_HAL_Driver/Inc/stm32f1xx_ll_exti.h ****   *         @arg @ref LL_EXTI_LINE_6
 364:Drivers/STM32F1xx_HAL_Driver/Inc/stm32f1xx_ll_exti.h ****   *         @arg @ref LL_EXTI_LINE_7
 365:Drivers/STM32F1xx_HAL_Driver/Inc/stm32f1xx_ll_exti.h ****   *         @arg @ref LL_EXTI_LINE_8
 366:Drivers/STM32F1xx_HAL_Driver/Inc/stm32f1xx_ll_exti.h ****   *         @arg @ref LL_EXTI_LINE_9
 367:Drivers/STM32F1xx_HAL_Driver/Inc/stm32f1xx_ll_exti.h ****   *         @arg @ref LL_EXTI_LINE_10
 368:Drivers/STM32F1xx_HAL_Driver/Inc/stm32f1xx_ll_exti.h ****   *         @arg @ref LL_EXTI_LINE_11
 369:Drivers/STM32F1xx_HAL_Driver/Inc/stm32f1xx_ll_exti.h ****   *         @arg @ref LL_EXTI_LINE_12
 370:Drivers/STM32F1xx_HAL_Driver/Inc/stm32f1xx_ll_exti.h ****   *         @arg @ref LL_EXTI_LINE_13
 371:Drivers/STM32F1xx_HAL_Driver/Inc/stm32f1xx_ll_exti.h ****   *         @arg @ref LL_EXTI_LINE_14
 372:Drivers/STM32F1xx_HAL_Driver/Inc/stm32f1xx_ll_exti.h ****   *         @arg @ref LL_EXTI_LINE_15
 373:Drivers/STM32F1xx_HAL_Driver/Inc/stm32f1xx_ll_exti.h ****   *         @arg @ref LL_EXTI_LINE_16
 374:Drivers/STM32F1xx_HAL_Driver/Inc/stm32f1xx_ll_exti.h ****   *         @arg @ref LL_EXTI_LINE_17
 375:Drivers/STM32F1xx_HAL_Driver/Inc/stm32f1xx_ll_exti.h ****   *         @arg @ref LL_EXTI_LINE_18
 376:Drivers/STM32F1xx_HAL_Driver/Inc/stm32f1xx_ll_exti.h ****   *         @arg @ref LL_EXTI_LINE_19
 377:Drivers/STM32F1xx_HAL_Driver/Inc/stm32f1xx_ll_exti.h ****   *         @arg @ref LL_EXTI_LINE_ALL_0_31
 378:Drivers/STM32F1xx_HAL_Driver/Inc/stm32f1xx_ll_exti.h ****   * @note   Please check each device line mapping for EXTI Line availability
 379:Drivers/STM32F1xx_HAL_Driver/Inc/stm32f1xx_ll_exti.h ****   * @retval None
 380:Drivers/STM32F1xx_HAL_Driver/Inc/stm32f1xx_ll_exti.h ****   */
 381:Drivers/STM32F1xx_HAL_Driver/Inc/stm32f1xx_ll_exti.h **** __STATIC_INLINE void LL_EXTI_EnableEvent_0_31(uint32_t ExtiLine)
 382:Drivers/STM32F1xx_HAL_Driver/Inc/stm32f1xx_ll_exti.h **** {
 133              		.loc 1 382 1
 134              		.cfi_startproc
 135              		@ args = 0, pretend = 0, frame = 8
 136              		@ frame_needed = 1, uses_anonymous_args = 0
ARM GAS  /tmp/ccGBEXMv.s 			page 10


 137              		@ link register save eliminated.
 138 0000 80B4     		push	{r7}
 139              	.LCFI12:
 140              		.cfi_def_cfa_offset 4
 141              		.cfi_offset 7, -4
 142 0002 83B0     		sub	sp, sp, #12
 143              	.LCFI13:
 144              		.cfi_def_cfa_offset 16
 145 0004 00AF     		add	r7, sp, #0
 146              	.LCFI14:
 147              		.cfi_def_cfa_register 7
 148 0006 7860     		str	r0, [r7, #4]
 383:Drivers/STM32F1xx_HAL_Driver/Inc/stm32f1xx_ll_exti.h ****   SET_BIT(EXTI->EMR, ExtiLine);
 149              		.loc 1 383 3
 150 0008 054B     		ldr	r3, .L8
 151 000a 5A68     		ldr	r2, [r3, #4]
 152 000c 0449     		ldr	r1, .L8
 153 000e 7B68     		ldr	r3, [r7, #4]
 154 0010 1343     		orrs	r3, r3, r2
 155 0012 4B60     		str	r3, [r1, #4]
 384:Drivers/STM32F1xx_HAL_Driver/Inc/stm32f1xx_ll_exti.h **** 
 385:Drivers/STM32F1xx_HAL_Driver/Inc/stm32f1xx_ll_exti.h **** }
 156              		.loc 1 385 1
 157 0014 00BF     		nop
 158 0016 0C37     		adds	r7, r7, #12
 159              	.LCFI15:
 160              		.cfi_def_cfa_offset 4
 161 0018 BD46     		mov	sp, r7
 162              	.LCFI16:
 163              		.cfi_def_cfa_register 13
 164              		@ sp needed
 165 001a 80BC     		pop	{r7}
 166              	.LCFI17:
 167              		.cfi_restore 7
 168              		.cfi_def_cfa_offset 0
 169 001c 7047     		bx	lr
 170              	.L9:
 171 001e 00BF     		.align	2
 172              	.L8:
 173 0020 00040140 		.word	1073808384
 174              		.cfi_endproc
 175              	.LFE68:
 177              		.section	.text.LL_EXTI_DisableEvent_0_31,"ax",%progbits
 178              		.align	1
 179              		.syntax unified
 180              		.thumb
 181              		.thumb_func
 182              		.fpu softvfp
 184              	LL_EXTI_DisableEvent_0_31:
 185              	.LFB69:
 386:Drivers/STM32F1xx_HAL_Driver/Inc/stm32f1xx_ll_exti.h **** 
 387:Drivers/STM32F1xx_HAL_Driver/Inc/stm32f1xx_ll_exti.h **** 
 388:Drivers/STM32F1xx_HAL_Driver/Inc/stm32f1xx_ll_exti.h **** /**
 389:Drivers/STM32F1xx_HAL_Driver/Inc/stm32f1xx_ll_exti.h ****   * @brief  Disable ExtiLine Event request for Lines in range 0 to 31
 390:Drivers/STM32F1xx_HAL_Driver/Inc/stm32f1xx_ll_exti.h ****   * @rmtoll EMR         EMx           LL_EXTI_DisableEvent_0_31
 391:Drivers/STM32F1xx_HAL_Driver/Inc/stm32f1xx_ll_exti.h ****   * @param  ExtiLine This parameter can be one of the following values:
 392:Drivers/STM32F1xx_HAL_Driver/Inc/stm32f1xx_ll_exti.h ****   *         @arg @ref LL_EXTI_LINE_0
ARM GAS  /tmp/ccGBEXMv.s 			page 11


 393:Drivers/STM32F1xx_HAL_Driver/Inc/stm32f1xx_ll_exti.h ****   *         @arg @ref LL_EXTI_LINE_1
 394:Drivers/STM32F1xx_HAL_Driver/Inc/stm32f1xx_ll_exti.h ****   *         @arg @ref LL_EXTI_LINE_2
 395:Drivers/STM32F1xx_HAL_Driver/Inc/stm32f1xx_ll_exti.h ****   *         @arg @ref LL_EXTI_LINE_3
 396:Drivers/STM32F1xx_HAL_Driver/Inc/stm32f1xx_ll_exti.h ****   *         @arg @ref LL_EXTI_LINE_4
 397:Drivers/STM32F1xx_HAL_Driver/Inc/stm32f1xx_ll_exti.h ****   *         @arg @ref LL_EXTI_LINE_5
 398:Drivers/STM32F1xx_HAL_Driver/Inc/stm32f1xx_ll_exti.h ****   *         @arg @ref LL_EXTI_LINE_6
 399:Drivers/STM32F1xx_HAL_Driver/Inc/stm32f1xx_ll_exti.h ****   *         @arg @ref LL_EXTI_LINE_7
 400:Drivers/STM32F1xx_HAL_Driver/Inc/stm32f1xx_ll_exti.h ****   *         @arg @ref LL_EXTI_LINE_8
 401:Drivers/STM32F1xx_HAL_Driver/Inc/stm32f1xx_ll_exti.h ****   *         @arg @ref LL_EXTI_LINE_9
 402:Drivers/STM32F1xx_HAL_Driver/Inc/stm32f1xx_ll_exti.h ****   *         @arg @ref LL_EXTI_LINE_10
 403:Drivers/STM32F1xx_HAL_Driver/Inc/stm32f1xx_ll_exti.h ****   *         @arg @ref LL_EXTI_LINE_11
 404:Drivers/STM32F1xx_HAL_Driver/Inc/stm32f1xx_ll_exti.h ****   *         @arg @ref LL_EXTI_LINE_12
 405:Drivers/STM32F1xx_HAL_Driver/Inc/stm32f1xx_ll_exti.h ****   *         @arg @ref LL_EXTI_LINE_13
 406:Drivers/STM32F1xx_HAL_Driver/Inc/stm32f1xx_ll_exti.h ****   *         @arg @ref LL_EXTI_LINE_14
 407:Drivers/STM32F1xx_HAL_Driver/Inc/stm32f1xx_ll_exti.h ****   *         @arg @ref LL_EXTI_LINE_15
 408:Drivers/STM32F1xx_HAL_Driver/Inc/stm32f1xx_ll_exti.h ****   *         @arg @ref LL_EXTI_LINE_16
 409:Drivers/STM32F1xx_HAL_Driver/Inc/stm32f1xx_ll_exti.h ****   *         @arg @ref LL_EXTI_LINE_17
 410:Drivers/STM32F1xx_HAL_Driver/Inc/stm32f1xx_ll_exti.h ****   *         @arg @ref LL_EXTI_LINE_18
 411:Drivers/STM32F1xx_HAL_Driver/Inc/stm32f1xx_ll_exti.h ****   *         @arg @ref LL_EXTI_LINE_19
 412:Drivers/STM32F1xx_HAL_Driver/Inc/stm32f1xx_ll_exti.h ****   *         @arg @ref LL_EXTI_LINE_ALL_0_31
 413:Drivers/STM32F1xx_HAL_Driver/Inc/stm32f1xx_ll_exti.h ****   * @note   Please check each device line mapping for EXTI Line availability
 414:Drivers/STM32F1xx_HAL_Driver/Inc/stm32f1xx_ll_exti.h ****   * @retval None
 415:Drivers/STM32F1xx_HAL_Driver/Inc/stm32f1xx_ll_exti.h ****   */
 416:Drivers/STM32F1xx_HAL_Driver/Inc/stm32f1xx_ll_exti.h **** __STATIC_INLINE void LL_EXTI_DisableEvent_0_31(uint32_t ExtiLine)
 417:Drivers/STM32F1xx_HAL_Driver/Inc/stm32f1xx_ll_exti.h **** {
 186              		.loc 1 417 1
 187              		.cfi_startproc
 188              		@ args = 0, pretend = 0, frame = 8
 189              		@ frame_needed = 1, uses_anonymous_args = 0
 190              		@ link register save eliminated.
 191 0000 80B4     		push	{r7}
 192              	.LCFI18:
 193              		.cfi_def_cfa_offset 4
 194              		.cfi_offset 7, -4
 195 0002 83B0     		sub	sp, sp, #12
 196              	.LCFI19:
 197              		.cfi_def_cfa_offset 16
 198 0004 00AF     		add	r7, sp, #0
 199              	.LCFI20:
 200              		.cfi_def_cfa_register 7
 201 0006 7860     		str	r0, [r7, #4]
 418:Drivers/STM32F1xx_HAL_Driver/Inc/stm32f1xx_ll_exti.h ****   CLEAR_BIT(EXTI->EMR, ExtiLine);
 202              		.loc 1 418 3
 203 0008 054B     		ldr	r3, .L11
 204 000a 5A68     		ldr	r2, [r3, #4]
 205 000c 7B68     		ldr	r3, [r7, #4]
 206 000e DB43     		mvns	r3, r3
 207 0010 0349     		ldr	r1, .L11
 208 0012 1340     		ands	r3, r3, r2
 209 0014 4B60     		str	r3, [r1, #4]
 419:Drivers/STM32F1xx_HAL_Driver/Inc/stm32f1xx_ll_exti.h **** }
 210              		.loc 1 419 1
 211 0016 00BF     		nop
 212 0018 0C37     		adds	r7, r7, #12
 213              	.LCFI21:
 214              		.cfi_def_cfa_offset 4
 215 001a BD46     		mov	sp, r7
ARM GAS  /tmp/ccGBEXMv.s 			page 12


 216              	.LCFI22:
 217              		.cfi_def_cfa_register 13
 218              		@ sp needed
 219 001c 80BC     		pop	{r7}
 220              	.LCFI23:
 221              		.cfi_restore 7
 222              		.cfi_def_cfa_offset 0
 223 001e 7047     		bx	lr
 224              	.L12:
 225              		.align	2
 226              	.L11:
 227 0020 00040140 		.word	1073808384
 228              		.cfi_endproc
 229              	.LFE69:
 231              		.section	.text.LL_EXTI_EnableRisingTrig_0_31,"ax",%progbits
 232              		.align	1
 233              		.syntax unified
 234              		.thumb
 235              		.thumb_func
 236              		.fpu softvfp
 238              	LL_EXTI_EnableRisingTrig_0_31:
 239              	.LFB71:
 420:Drivers/STM32F1xx_HAL_Driver/Inc/stm32f1xx_ll_exti.h **** 
 421:Drivers/STM32F1xx_HAL_Driver/Inc/stm32f1xx_ll_exti.h **** 
 422:Drivers/STM32F1xx_HAL_Driver/Inc/stm32f1xx_ll_exti.h **** /**
 423:Drivers/STM32F1xx_HAL_Driver/Inc/stm32f1xx_ll_exti.h ****   * @brief  Indicate if ExtiLine Event request is enabled for Lines in range 0 to 31
 424:Drivers/STM32F1xx_HAL_Driver/Inc/stm32f1xx_ll_exti.h ****   * @rmtoll EMR         EMx           LL_EXTI_IsEnabledEvent_0_31
 425:Drivers/STM32F1xx_HAL_Driver/Inc/stm32f1xx_ll_exti.h ****   * @param  ExtiLine This parameter can be one of the following values:
 426:Drivers/STM32F1xx_HAL_Driver/Inc/stm32f1xx_ll_exti.h ****   *         @arg @ref LL_EXTI_LINE_0
 427:Drivers/STM32F1xx_HAL_Driver/Inc/stm32f1xx_ll_exti.h ****   *         @arg @ref LL_EXTI_LINE_1
 428:Drivers/STM32F1xx_HAL_Driver/Inc/stm32f1xx_ll_exti.h ****   *         @arg @ref LL_EXTI_LINE_2
 429:Drivers/STM32F1xx_HAL_Driver/Inc/stm32f1xx_ll_exti.h ****   *         @arg @ref LL_EXTI_LINE_3
 430:Drivers/STM32F1xx_HAL_Driver/Inc/stm32f1xx_ll_exti.h ****   *         @arg @ref LL_EXTI_LINE_4
 431:Drivers/STM32F1xx_HAL_Driver/Inc/stm32f1xx_ll_exti.h ****   *         @arg @ref LL_EXTI_LINE_5
 432:Drivers/STM32F1xx_HAL_Driver/Inc/stm32f1xx_ll_exti.h ****   *         @arg @ref LL_EXTI_LINE_6
 433:Drivers/STM32F1xx_HAL_Driver/Inc/stm32f1xx_ll_exti.h ****   *         @arg @ref LL_EXTI_LINE_7
 434:Drivers/STM32F1xx_HAL_Driver/Inc/stm32f1xx_ll_exti.h ****   *         @arg @ref LL_EXTI_LINE_8
 435:Drivers/STM32F1xx_HAL_Driver/Inc/stm32f1xx_ll_exti.h ****   *         @arg @ref LL_EXTI_LINE_9
 436:Drivers/STM32F1xx_HAL_Driver/Inc/stm32f1xx_ll_exti.h ****   *         @arg @ref LL_EXTI_LINE_10
 437:Drivers/STM32F1xx_HAL_Driver/Inc/stm32f1xx_ll_exti.h ****   *         @arg @ref LL_EXTI_LINE_11
 438:Drivers/STM32F1xx_HAL_Driver/Inc/stm32f1xx_ll_exti.h ****   *         @arg @ref LL_EXTI_LINE_12
 439:Drivers/STM32F1xx_HAL_Driver/Inc/stm32f1xx_ll_exti.h ****   *         @arg @ref LL_EXTI_LINE_13
 440:Drivers/STM32F1xx_HAL_Driver/Inc/stm32f1xx_ll_exti.h ****   *         @arg @ref LL_EXTI_LINE_14
 441:Drivers/STM32F1xx_HAL_Driver/Inc/stm32f1xx_ll_exti.h ****   *         @arg @ref LL_EXTI_LINE_15
 442:Drivers/STM32F1xx_HAL_Driver/Inc/stm32f1xx_ll_exti.h ****   *         @arg @ref LL_EXTI_LINE_16
 443:Drivers/STM32F1xx_HAL_Driver/Inc/stm32f1xx_ll_exti.h ****   *         @arg @ref LL_EXTI_LINE_17
 444:Drivers/STM32F1xx_HAL_Driver/Inc/stm32f1xx_ll_exti.h ****   *         @arg @ref LL_EXTI_LINE_18
 445:Drivers/STM32F1xx_HAL_Driver/Inc/stm32f1xx_ll_exti.h ****   *         @arg @ref LL_EXTI_LINE_19
 446:Drivers/STM32F1xx_HAL_Driver/Inc/stm32f1xx_ll_exti.h ****   *         @arg @ref LL_EXTI_LINE_ALL_0_31
 447:Drivers/STM32F1xx_HAL_Driver/Inc/stm32f1xx_ll_exti.h ****   * @note   Please check each device line mapping for EXTI Line availability
 448:Drivers/STM32F1xx_HAL_Driver/Inc/stm32f1xx_ll_exti.h ****   * @retval State of bit (1 or 0).
 449:Drivers/STM32F1xx_HAL_Driver/Inc/stm32f1xx_ll_exti.h ****   */
 450:Drivers/STM32F1xx_HAL_Driver/Inc/stm32f1xx_ll_exti.h **** __STATIC_INLINE uint32_t LL_EXTI_IsEnabledEvent_0_31(uint32_t ExtiLine)
 451:Drivers/STM32F1xx_HAL_Driver/Inc/stm32f1xx_ll_exti.h **** {
 452:Drivers/STM32F1xx_HAL_Driver/Inc/stm32f1xx_ll_exti.h ****   return (READ_BIT(EXTI->EMR, ExtiLine) == (ExtiLine));
 453:Drivers/STM32F1xx_HAL_Driver/Inc/stm32f1xx_ll_exti.h **** 
 454:Drivers/STM32F1xx_HAL_Driver/Inc/stm32f1xx_ll_exti.h **** }
ARM GAS  /tmp/ccGBEXMv.s 			page 13


 455:Drivers/STM32F1xx_HAL_Driver/Inc/stm32f1xx_ll_exti.h **** 
 456:Drivers/STM32F1xx_HAL_Driver/Inc/stm32f1xx_ll_exti.h **** 
 457:Drivers/STM32F1xx_HAL_Driver/Inc/stm32f1xx_ll_exti.h **** /**
 458:Drivers/STM32F1xx_HAL_Driver/Inc/stm32f1xx_ll_exti.h ****   * @}
 459:Drivers/STM32F1xx_HAL_Driver/Inc/stm32f1xx_ll_exti.h ****   */
 460:Drivers/STM32F1xx_HAL_Driver/Inc/stm32f1xx_ll_exti.h **** 
 461:Drivers/STM32F1xx_HAL_Driver/Inc/stm32f1xx_ll_exti.h **** /** @defgroup EXTI_LL_EF_Rising_Trigger_Management Rising_Trigger_Management
 462:Drivers/STM32F1xx_HAL_Driver/Inc/stm32f1xx_ll_exti.h ****   * @{
 463:Drivers/STM32F1xx_HAL_Driver/Inc/stm32f1xx_ll_exti.h ****   */
 464:Drivers/STM32F1xx_HAL_Driver/Inc/stm32f1xx_ll_exti.h **** 
 465:Drivers/STM32F1xx_HAL_Driver/Inc/stm32f1xx_ll_exti.h **** /**
 466:Drivers/STM32F1xx_HAL_Driver/Inc/stm32f1xx_ll_exti.h ****   * @brief  Enable ExtiLine Rising Edge Trigger for Lines in range 0 to 31
 467:Drivers/STM32F1xx_HAL_Driver/Inc/stm32f1xx_ll_exti.h ****   * @note The configurable wakeup lines are edge-triggered. No glitch must be
 468:Drivers/STM32F1xx_HAL_Driver/Inc/stm32f1xx_ll_exti.h ****   *       generated on these lines. If a rising edge on a configurable interrupt
 469:Drivers/STM32F1xx_HAL_Driver/Inc/stm32f1xx_ll_exti.h ****   *       line occurs during a write operation in the EXTI_RTSR register, the
 470:Drivers/STM32F1xx_HAL_Driver/Inc/stm32f1xx_ll_exti.h ****   *       pending bit is not set.
 471:Drivers/STM32F1xx_HAL_Driver/Inc/stm32f1xx_ll_exti.h ****   *       Rising and falling edge triggers can be set for
 472:Drivers/STM32F1xx_HAL_Driver/Inc/stm32f1xx_ll_exti.h ****   *       the same interrupt line. In this case, both generate a trigger
 473:Drivers/STM32F1xx_HAL_Driver/Inc/stm32f1xx_ll_exti.h ****   *       condition.
 474:Drivers/STM32F1xx_HAL_Driver/Inc/stm32f1xx_ll_exti.h ****   * @rmtoll RTSR        RTx           LL_EXTI_EnableRisingTrig_0_31
 475:Drivers/STM32F1xx_HAL_Driver/Inc/stm32f1xx_ll_exti.h ****   * @param  ExtiLine This parameter can be a combination of the following values:
 476:Drivers/STM32F1xx_HAL_Driver/Inc/stm32f1xx_ll_exti.h ****   *         @arg @ref LL_EXTI_LINE_0
 477:Drivers/STM32F1xx_HAL_Driver/Inc/stm32f1xx_ll_exti.h ****   *         @arg @ref LL_EXTI_LINE_1
 478:Drivers/STM32F1xx_HAL_Driver/Inc/stm32f1xx_ll_exti.h ****   *         @arg @ref LL_EXTI_LINE_2
 479:Drivers/STM32F1xx_HAL_Driver/Inc/stm32f1xx_ll_exti.h ****   *         @arg @ref LL_EXTI_LINE_3
 480:Drivers/STM32F1xx_HAL_Driver/Inc/stm32f1xx_ll_exti.h ****   *         @arg @ref LL_EXTI_LINE_4
 481:Drivers/STM32F1xx_HAL_Driver/Inc/stm32f1xx_ll_exti.h ****   *         @arg @ref LL_EXTI_LINE_5
 482:Drivers/STM32F1xx_HAL_Driver/Inc/stm32f1xx_ll_exti.h ****   *         @arg @ref LL_EXTI_LINE_6
 483:Drivers/STM32F1xx_HAL_Driver/Inc/stm32f1xx_ll_exti.h ****   *         @arg @ref LL_EXTI_LINE_7
 484:Drivers/STM32F1xx_HAL_Driver/Inc/stm32f1xx_ll_exti.h ****   *         @arg @ref LL_EXTI_LINE_8
 485:Drivers/STM32F1xx_HAL_Driver/Inc/stm32f1xx_ll_exti.h ****   *         @arg @ref LL_EXTI_LINE_9
 486:Drivers/STM32F1xx_HAL_Driver/Inc/stm32f1xx_ll_exti.h ****   *         @arg @ref LL_EXTI_LINE_10
 487:Drivers/STM32F1xx_HAL_Driver/Inc/stm32f1xx_ll_exti.h ****   *         @arg @ref LL_EXTI_LINE_11
 488:Drivers/STM32F1xx_HAL_Driver/Inc/stm32f1xx_ll_exti.h ****   *         @arg @ref LL_EXTI_LINE_12
 489:Drivers/STM32F1xx_HAL_Driver/Inc/stm32f1xx_ll_exti.h ****   *         @arg @ref LL_EXTI_LINE_13
 490:Drivers/STM32F1xx_HAL_Driver/Inc/stm32f1xx_ll_exti.h ****   *         @arg @ref LL_EXTI_LINE_14
 491:Drivers/STM32F1xx_HAL_Driver/Inc/stm32f1xx_ll_exti.h ****   *         @arg @ref LL_EXTI_LINE_15
 492:Drivers/STM32F1xx_HAL_Driver/Inc/stm32f1xx_ll_exti.h ****   *         @arg @ref LL_EXTI_LINE_16
 493:Drivers/STM32F1xx_HAL_Driver/Inc/stm32f1xx_ll_exti.h ****   *         @arg @ref LL_EXTI_LINE_18
 494:Drivers/STM32F1xx_HAL_Driver/Inc/stm32f1xx_ll_exti.h ****   *         @arg @ref LL_EXTI_LINE_19
 495:Drivers/STM32F1xx_HAL_Driver/Inc/stm32f1xx_ll_exti.h ****   * @note   Please check each device line mapping for EXTI Line availability
 496:Drivers/STM32F1xx_HAL_Driver/Inc/stm32f1xx_ll_exti.h ****   * @retval None
 497:Drivers/STM32F1xx_HAL_Driver/Inc/stm32f1xx_ll_exti.h ****   */
 498:Drivers/STM32F1xx_HAL_Driver/Inc/stm32f1xx_ll_exti.h **** __STATIC_INLINE void LL_EXTI_EnableRisingTrig_0_31(uint32_t ExtiLine)
 499:Drivers/STM32F1xx_HAL_Driver/Inc/stm32f1xx_ll_exti.h **** {
 240              		.loc 1 499 1
 241              		.cfi_startproc
 242              		@ args = 0, pretend = 0, frame = 8
 243              		@ frame_needed = 1, uses_anonymous_args = 0
 244              		@ link register save eliminated.
 245 0000 80B4     		push	{r7}
 246              	.LCFI24:
 247              		.cfi_def_cfa_offset 4
 248              		.cfi_offset 7, -4
 249 0002 83B0     		sub	sp, sp, #12
 250              	.LCFI25:
 251              		.cfi_def_cfa_offset 16
ARM GAS  /tmp/ccGBEXMv.s 			page 14


 252 0004 00AF     		add	r7, sp, #0
 253              	.LCFI26:
 254              		.cfi_def_cfa_register 7
 255 0006 7860     		str	r0, [r7, #4]
 500:Drivers/STM32F1xx_HAL_Driver/Inc/stm32f1xx_ll_exti.h ****   SET_BIT(EXTI->RTSR, ExtiLine);
 256              		.loc 1 500 3
 257 0008 054B     		ldr	r3, .L14
 258 000a 9A68     		ldr	r2, [r3, #8]
 259 000c 0449     		ldr	r1, .L14
 260 000e 7B68     		ldr	r3, [r7, #4]
 261 0010 1343     		orrs	r3, r3, r2
 262 0012 8B60     		str	r3, [r1, #8]
 501:Drivers/STM32F1xx_HAL_Driver/Inc/stm32f1xx_ll_exti.h **** 
 502:Drivers/STM32F1xx_HAL_Driver/Inc/stm32f1xx_ll_exti.h **** }
 263              		.loc 1 502 1
 264 0014 00BF     		nop
 265 0016 0C37     		adds	r7, r7, #12
 266              	.LCFI27:
 267              		.cfi_def_cfa_offset 4
 268 0018 BD46     		mov	sp, r7
 269              	.LCFI28:
 270              		.cfi_def_cfa_register 13
 271              		@ sp needed
 272 001a 80BC     		pop	{r7}
 273              	.LCFI29:
 274              		.cfi_restore 7
 275              		.cfi_def_cfa_offset 0
 276 001c 7047     		bx	lr
 277              	.L15:
 278 001e 00BF     		.align	2
 279              	.L14:
 280 0020 00040140 		.word	1073808384
 281              		.cfi_endproc
 282              	.LFE71:
 284              		.section	.text.LL_EXTI_DisableRisingTrig_0_31,"ax",%progbits
 285              		.align	1
 286              		.syntax unified
 287              		.thumb
 288              		.thumb_func
 289              		.fpu softvfp
 291              	LL_EXTI_DisableRisingTrig_0_31:
 292              	.LFB72:
 503:Drivers/STM32F1xx_HAL_Driver/Inc/stm32f1xx_ll_exti.h **** 
 504:Drivers/STM32F1xx_HAL_Driver/Inc/stm32f1xx_ll_exti.h **** 
 505:Drivers/STM32F1xx_HAL_Driver/Inc/stm32f1xx_ll_exti.h **** /**
 506:Drivers/STM32F1xx_HAL_Driver/Inc/stm32f1xx_ll_exti.h ****   * @brief  Disable ExtiLine Rising Edge Trigger for Lines in range 0 to 31
 507:Drivers/STM32F1xx_HAL_Driver/Inc/stm32f1xx_ll_exti.h ****   * @note The configurable wakeup lines are edge-triggered. No glitch must be
 508:Drivers/STM32F1xx_HAL_Driver/Inc/stm32f1xx_ll_exti.h ****   *       generated on these lines. If a rising edge on a configurable interrupt
 509:Drivers/STM32F1xx_HAL_Driver/Inc/stm32f1xx_ll_exti.h ****   *       line occurs during a write operation in the EXTI_RTSR register, the
 510:Drivers/STM32F1xx_HAL_Driver/Inc/stm32f1xx_ll_exti.h ****   *       pending bit is not set.
 511:Drivers/STM32F1xx_HAL_Driver/Inc/stm32f1xx_ll_exti.h ****   *       Rising and falling edge triggers can be set for
 512:Drivers/STM32F1xx_HAL_Driver/Inc/stm32f1xx_ll_exti.h ****   *       the same interrupt line. In this case, both generate a trigger
 513:Drivers/STM32F1xx_HAL_Driver/Inc/stm32f1xx_ll_exti.h ****   *       condition.
 514:Drivers/STM32F1xx_HAL_Driver/Inc/stm32f1xx_ll_exti.h ****   * @rmtoll RTSR        RTx           LL_EXTI_DisableRisingTrig_0_31
 515:Drivers/STM32F1xx_HAL_Driver/Inc/stm32f1xx_ll_exti.h ****   * @param  ExtiLine This parameter can be a combination of the following values:
 516:Drivers/STM32F1xx_HAL_Driver/Inc/stm32f1xx_ll_exti.h ****   *         @arg @ref LL_EXTI_LINE_0
 517:Drivers/STM32F1xx_HAL_Driver/Inc/stm32f1xx_ll_exti.h ****   *         @arg @ref LL_EXTI_LINE_1
ARM GAS  /tmp/ccGBEXMv.s 			page 15


 518:Drivers/STM32F1xx_HAL_Driver/Inc/stm32f1xx_ll_exti.h ****   *         @arg @ref LL_EXTI_LINE_2
 519:Drivers/STM32F1xx_HAL_Driver/Inc/stm32f1xx_ll_exti.h ****   *         @arg @ref LL_EXTI_LINE_3
 520:Drivers/STM32F1xx_HAL_Driver/Inc/stm32f1xx_ll_exti.h ****   *         @arg @ref LL_EXTI_LINE_4
 521:Drivers/STM32F1xx_HAL_Driver/Inc/stm32f1xx_ll_exti.h ****   *         @arg @ref LL_EXTI_LINE_5
 522:Drivers/STM32F1xx_HAL_Driver/Inc/stm32f1xx_ll_exti.h ****   *         @arg @ref LL_EXTI_LINE_6
 523:Drivers/STM32F1xx_HAL_Driver/Inc/stm32f1xx_ll_exti.h ****   *         @arg @ref LL_EXTI_LINE_7
 524:Drivers/STM32F1xx_HAL_Driver/Inc/stm32f1xx_ll_exti.h ****   *         @arg @ref LL_EXTI_LINE_8
 525:Drivers/STM32F1xx_HAL_Driver/Inc/stm32f1xx_ll_exti.h ****   *         @arg @ref LL_EXTI_LINE_9
 526:Drivers/STM32F1xx_HAL_Driver/Inc/stm32f1xx_ll_exti.h ****   *         @arg @ref LL_EXTI_LINE_10
 527:Drivers/STM32F1xx_HAL_Driver/Inc/stm32f1xx_ll_exti.h ****   *         @arg @ref LL_EXTI_LINE_11
 528:Drivers/STM32F1xx_HAL_Driver/Inc/stm32f1xx_ll_exti.h ****   *         @arg @ref LL_EXTI_LINE_12
 529:Drivers/STM32F1xx_HAL_Driver/Inc/stm32f1xx_ll_exti.h ****   *         @arg @ref LL_EXTI_LINE_13
 530:Drivers/STM32F1xx_HAL_Driver/Inc/stm32f1xx_ll_exti.h ****   *         @arg @ref LL_EXTI_LINE_14
 531:Drivers/STM32F1xx_HAL_Driver/Inc/stm32f1xx_ll_exti.h ****   *         @arg @ref LL_EXTI_LINE_15
 532:Drivers/STM32F1xx_HAL_Driver/Inc/stm32f1xx_ll_exti.h ****   *         @arg @ref LL_EXTI_LINE_16
 533:Drivers/STM32F1xx_HAL_Driver/Inc/stm32f1xx_ll_exti.h ****   *         @arg @ref LL_EXTI_LINE_18
 534:Drivers/STM32F1xx_HAL_Driver/Inc/stm32f1xx_ll_exti.h ****   *         @arg @ref LL_EXTI_LINE_19
 535:Drivers/STM32F1xx_HAL_Driver/Inc/stm32f1xx_ll_exti.h ****   * @note   Please check each device line mapping for EXTI Line availability
 536:Drivers/STM32F1xx_HAL_Driver/Inc/stm32f1xx_ll_exti.h ****   * @retval None
 537:Drivers/STM32F1xx_HAL_Driver/Inc/stm32f1xx_ll_exti.h ****   */
 538:Drivers/STM32F1xx_HAL_Driver/Inc/stm32f1xx_ll_exti.h **** __STATIC_INLINE void LL_EXTI_DisableRisingTrig_0_31(uint32_t ExtiLine)
 539:Drivers/STM32F1xx_HAL_Driver/Inc/stm32f1xx_ll_exti.h **** {
 293              		.loc 1 539 1
 294              		.cfi_startproc
 295              		@ args = 0, pretend = 0, frame = 8
 296              		@ frame_needed = 1, uses_anonymous_args = 0
 297              		@ link register save eliminated.
 298 0000 80B4     		push	{r7}
 299              	.LCFI30:
 300              		.cfi_def_cfa_offset 4
 301              		.cfi_offset 7, -4
 302 0002 83B0     		sub	sp, sp, #12
 303              	.LCFI31:
 304              		.cfi_def_cfa_offset 16
 305 0004 00AF     		add	r7, sp, #0
 306              	.LCFI32:
 307              		.cfi_def_cfa_register 7
 308 0006 7860     		str	r0, [r7, #4]
 540:Drivers/STM32F1xx_HAL_Driver/Inc/stm32f1xx_ll_exti.h ****   CLEAR_BIT(EXTI->RTSR, ExtiLine);
 309              		.loc 1 540 3
 310 0008 054B     		ldr	r3, .L17
 311 000a 9A68     		ldr	r2, [r3, #8]
 312 000c 7B68     		ldr	r3, [r7, #4]
 313 000e DB43     		mvns	r3, r3
 314 0010 0349     		ldr	r1, .L17
 315 0012 1340     		ands	r3, r3, r2
 316 0014 8B60     		str	r3, [r1, #8]
 541:Drivers/STM32F1xx_HAL_Driver/Inc/stm32f1xx_ll_exti.h **** 
 542:Drivers/STM32F1xx_HAL_Driver/Inc/stm32f1xx_ll_exti.h **** }
 317              		.loc 1 542 1
 318 0016 00BF     		nop
 319 0018 0C37     		adds	r7, r7, #12
 320              	.LCFI33:
 321              		.cfi_def_cfa_offset 4
 322 001a BD46     		mov	sp, r7
 323              	.LCFI34:
 324              		.cfi_def_cfa_register 13
ARM GAS  /tmp/ccGBEXMv.s 			page 16


 325              		@ sp needed
 326 001c 80BC     		pop	{r7}
 327              	.LCFI35:
 328              		.cfi_restore 7
 329              		.cfi_def_cfa_offset 0
 330 001e 7047     		bx	lr
 331              	.L18:
 332              		.align	2
 333              	.L17:
 334 0020 00040140 		.word	1073808384
 335              		.cfi_endproc
 336              	.LFE72:
 338              		.section	.text.LL_EXTI_EnableFallingTrig_0_31,"ax",%progbits
 339              		.align	1
 340              		.syntax unified
 341              		.thumb
 342              		.thumb_func
 343              		.fpu softvfp
 345              	LL_EXTI_EnableFallingTrig_0_31:
 346              	.LFB74:
 543:Drivers/STM32F1xx_HAL_Driver/Inc/stm32f1xx_ll_exti.h **** 
 544:Drivers/STM32F1xx_HAL_Driver/Inc/stm32f1xx_ll_exti.h **** 
 545:Drivers/STM32F1xx_HAL_Driver/Inc/stm32f1xx_ll_exti.h **** /**
 546:Drivers/STM32F1xx_HAL_Driver/Inc/stm32f1xx_ll_exti.h ****   * @brief  Check if rising edge trigger is enabled for Lines in range 0 to 31
 547:Drivers/STM32F1xx_HAL_Driver/Inc/stm32f1xx_ll_exti.h ****   * @rmtoll RTSR        RTx           LL_EXTI_IsEnabledRisingTrig_0_31
 548:Drivers/STM32F1xx_HAL_Driver/Inc/stm32f1xx_ll_exti.h ****   * @param  ExtiLine This parameter can be a combination of the following values:
 549:Drivers/STM32F1xx_HAL_Driver/Inc/stm32f1xx_ll_exti.h ****   *         @arg @ref LL_EXTI_LINE_0
 550:Drivers/STM32F1xx_HAL_Driver/Inc/stm32f1xx_ll_exti.h ****   *         @arg @ref LL_EXTI_LINE_1
 551:Drivers/STM32F1xx_HAL_Driver/Inc/stm32f1xx_ll_exti.h ****   *         @arg @ref LL_EXTI_LINE_2
 552:Drivers/STM32F1xx_HAL_Driver/Inc/stm32f1xx_ll_exti.h ****   *         @arg @ref LL_EXTI_LINE_3
 553:Drivers/STM32F1xx_HAL_Driver/Inc/stm32f1xx_ll_exti.h ****   *         @arg @ref LL_EXTI_LINE_4
 554:Drivers/STM32F1xx_HAL_Driver/Inc/stm32f1xx_ll_exti.h ****   *         @arg @ref LL_EXTI_LINE_5
 555:Drivers/STM32F1xx_HAL_Driver/Inc/stm32f1xx_ll_exti.h ****   *         @arg @ref LL_EXTI_LINE_6
 556:Drivers/STM32F1xx_HAL_Driver/Inc/stm32f1xx_ll_exti.h ****   *         @arg @ref LL_EXTI_LINE_7
 557:Drivers/STM32F1xx_HAL_Driver/Inc/stm32f1xx_ll_exti.h ****   *         @arg @ref LL_EXTI_LINE_8
 558:Drivers/STM32F1xx_HAL_Driver/Inc/stm32f1xx_ll_exti.h ****   *         @arg @ref LL_EXTI_LINE_9
 559:Drivers/STM32F1xx_HAL_Driver/Inc/stm32f1xx_ll_exti.h ****   *         @arg @ref LL_EXTI_LINE_10
 560:Drivers/STM32F1xx_HAL_Driver/Inc/stm32f1xx_ll_exti.h ****   *         @arg @ref LL_EXTI_LINE_11
 561:Drivers/STM32F1xx_HAL_Driver/Inc/stm32f1xx_ll_exti.h ****   *         @arg @ref LL_EXTI_LINE_12
 562:Drivers/STM32F1xx_HAL_Driver/Inc/stm32f1xx_ll_exti.h ****   *         @arg @ref LL_EXTI_LINE_13
 563:Drivers/STM32F1xx_HAL_Driver/Inc/stm32f1xx_ll_exti.h ****   *         @arg @ref LL_EXTI_LINE_14
 564:Drivers/STM32F1xx_HAL_Driver/Inc/stm32f1xx_ll_exti.h ****   *         @arg @ref LL_EXTI_LINE_15
 565:Drivers/STM32F1xx_HAL_Driver/Inc/stm32f1xx_ll_exti.h ****   *         @arg @ref LL_EXTI_LINE_16
 566:Drivers/STM32F1xx_HAL_Driver/Inc/stm32f1xx_ll_exti.h ****   *         @arg @ref LL_EXTI_LINE_18
 567:Drivers/STM32F1xx_HAL_Driver/Inc/stm32f1xx_ll_exti.h ****   *         @arg @ref LL_EXTI_LINE_19
 568:Drivers/STM32F1xx_HAL_Driver/Inc/stm32f1xx_ll_exti.h ****   * @note   Please check each device line mapping for EXTI Line availability
 569:Drivers/STM32F1xx_HAL_Driver/Inc/stm32f1xx_ll_exti.h ****   * @retval State of bit (1 or 0).
 570:Drivers/STM32F1xx_HAL_Driver/Inc/stm32f1xx_ll_exti.h ****   */
 571:Drivers/STM32F1xx_HAL_Driver/Inc/stm32f1xx_ll_exti.h **** __STATIC_INLINE uint32_t LL_EXTI_IsEnabledRisingTrig_0_31(uint32_t ExtiLine)
 572:Drivers/STM32F1xx_HAL_Driver/Inc/stm32f1xx_ll_exti.h **** {
 573:Drivers/STM32F1xx_HAL_Driver/Inc/stm32f1xx_ll_exti.h ****   return (READ_BIT(EXTI->RTSR, ExtiLine) == (ExtiLine));
 574:Drivers/STM32F1xx_HAL_Driver/Inc/stm32f1xx_ll_exti.h **** }
 575:Drivers/STM32F1xx_HAL_Driver/Inc/stm32f1xx_ll_exti.h **** 
 576:Drivers/STM32F1xx_HAL_Driver/Inc/stm32f1xx_ll_exti.h **** 
 577:Drivers/STM32F1xx_HAL_Driver/Inc/stm32f1xx_ll_exti.h **** /**
 578:Drivers/STM32F1xx_HAL_Driver/Inc/stm32f1xx_ll_exti.h ****   * @}
 579:Drivers/STM32F1xx_HAL_Driver/Inc/stm32f1xx_ll_exti.h ****   */
ARM GAS  /tmp/ccGBEXMv.s 			page 17


 580:Drivers/STM32F1xx_HAL_Driver/Inc/stm32f1xx_ll_exti.h **** 
 581:Drivers/STM32F1xx_HAL_Driver/Inc/stm32f1xx_ll_exti.h **** /** @defgroup EXTI_LL_EF_Falling_Trigger_Management Falling_Trigger_Management
 582:Drivers/STM32F1xx_HAL_Driver/Inc/stm32f1xx_ll_exti.h ****   * @{
 583:Drivers/STM32F1xx_HAL_Driver/Inc/stm32f1xx_ll_exti.h ****   */
 584:Drivers/STM32F1xx_HAL_Driver/Inc/stm32f1xx_ll_exti.h **** 
 585:Drivers/STM32F1xx_HAL_Driver/Inc/stm32f1xx_ll_exti.h **** /**
 586:Drivers/STM32F1xx_HAL_Driver/Inc/stm32f1xx_ll_exti.h ****   * @brief  Enable ExtiLine Falling Edge Trigger for Lines in range 0 to 31
 587:Drivers/STM32F1xx_HAL_Driver/Inc/stm32f1xx_ll_exti.h ****   * @note The configurable wakeup lines are edge-triggered. No glitch must be
 588:Drivers/STM32F1xx_HAL_Driver/Inc/stm32f1xx_ll_exti.h ****   *       generated on these lines. If a falling edge on a configurable interrupt
 589:Drivers/STM32F1xx_HAL_Driver/Inc/stm32f1xx_ll_exti.h ****   *       line occurs during a write operation in the EXTI_FTSR register, the
 590:Drivers/STM32F1xx_HAL_Driver/Inc/stm32f1xx_ll_exti.h ****   *       pending bit is not set.
 591:Drivers/STM32F1xx_HAL_Driver/Inc/stm32f1xx_ll_exti.h ****   *       Rising and falling edge triggers can be set for
 592:Drivers/STM32F1xx_HAL_Driver/Inc/stm32f1xx_ll_exti.h ****   *       the same interrupt line. In this case, both generate a trigger
 593:Drivers/STM32F1xx_HAL_Driver/Inc/stm32f1xx_ll_exti.h ****   *       condition.
 594:Drivers/STM32F1xx_HAL_Driver/Inc/stm32f1xx_ll_exti.h ****   * @rmtoll FTSR        FTx           LL_EXTI_EnableFallingTrig_0_31
 595:Drivers/STM32F1xx_HAL_Driver/Inc/stm32f1xx_ll_exti.h ****   * @param  ExtiLine This parameter can be a combination of the following values:
 596:Drivers/STM32F1xx_HAL_Driver/Inc/stm32f1xx_ll_exti.h ****   *         @arg @ref LL_EXTI_LINE_0
 597:Drivers/STM32F1xx_HAL_Driver/Inc/stm32f1xx_ll_exti.h ****   *         @arg @ref LL_EXTI_LINE_1
 598:Drivers/STM32F1xx_HAL_Driver/Inc/stm32f1xx_ll_exti.h ****   *         @arg @ref LL_EXTI_LINE_2
 599:Drivers/STM32F1xx_HAL_Driver/Inc/stm32f1xx_ll_exti.h ****   *         @arg @ref LL_EXTI_LINE_3
 600:Drivers/STM32F1xx_HAL_Driver/Inc/stm32f1xx_ll_exti.h ****   *         @arg @ref LL_EXTI_LINE_4
 601:Drivers/STM32F1xx_HAL_Driver/Inc/stm32f1xx_ll_exti.h ****   *         @arg @ref LL_EXTI_LINE_5
 602:Drivers/STM32F1xx_HAL_Driver/Inc/stm32f1xx_ll_exti.h ****   *         @arg @ref LL_EXTI_LINE_6
 603:Drivers/STM32F1xx_HAL_Driver/Inc/stm32f1xx_ll_exti.h ****   *         @arg @ref LL_EXTI_LINE_7
 604:Drivers/STM32F1xx_HAL_Driver/Inc/stm32f1xx_ll_exti.h ****   *         @arg @ref LL_EXTI_LINE_8
 605:Drivers/STM32F1xx_HAL_Driver/Inc/stm32f1xx_ll_exti.h ****   *         @arg @ref LL_EXTI_LINE_9
 606:Drivers/STM32F1xx_HAL_Driver/Inc/stm32f1xx_ll_exti.h ****   *         @arg @ref LL_EXTI_LINE_10
 607:Drivers/STM32F1xx_HAL_Driver/Inc/stm32f1xx_ll_exti.h ****   *         @arg @ref LL_EXTI_LINE_11
 608:Drivers/STM32F1xx_HAL_Driver/Inc/stm32f1xx_ll_exti.h ****   *         @arg @ref LL_EXTI_LINE_12
 609:Drivers/STM32F1xx_HAL_Driver/Inc/stm32f1xx_ll_exti.h ****   *         @arg @ref LL_EXTI_LINE_13
 610:Drivers/STM32F1xx_HAL_Driver/Inc/stm32f1xx_ll_exti.h ****   *         @arg @ref LL_EXTI_LINE_14
 611:Drivers/STM32F1xx_HAL_Driver/Inc/stm32f1xx_ll_exti.h ****   *         @arg @ref LL_EXTI_LINE_15
 612:Drivers/STM32F1xx_HAL_Driver/Inc/stm32f1xx_ll_exti.h ****   *         @arg @ref LL_EXTI_LINE_16
 613:Drivers/STM32F1xx_HAL_Driver/Inc/stm32f1xx_ll_exti.h ****   *         @arg @ref LL_EXTI_LINE_18
 614:Drivers/STM32F1xx_HAL_Driver/Inc/stm32f1xx_ll_exti.h ****   *         @arg @ref LL_EXTI_LINE_19
 615:Drivers/STM32F1xx_HAL_Driver/Inc/stm32f1xx_ll_exti.h ****   * @note   Please check each device line mapping for EXTI Line availability
 616:Drivers/STM32F1xx_HAL_Driver/Inc/stm32f1xx_ll_exti.h ****   * @retval None
 617:Drivers/STM32F1xx_HAL_Driver/Inc/stm32f1xx_ll_exti.h ****   */
 618:Drivers/STM32F1xx_HAL_Driver/Inc/stm32f1xx_ll_exti.h **** __STATIC_INLINE void LL_EXTI_EnableFallingTrig_0_31(uint32_t ExtiLine)
 619:Drivers/STM32F1xx_HAL_Driver/Inc/stm32f1xx_ll_exti.h **** {
 347              		.loc 1 619 1
 348              		.cfi_startproc
 349              		@ args = 0, pretend = 0, frame = 8
 350              		@ frame_needed = 1, uses_anonymous_args = 0
 351              		@ link register save eliminated.
 352 0000 80B4     		push	{r7}
 353              	.LCFI36:
 354              		.cfi_def_cfa_offset 4
 355              		.cfi_offset 7, -4
 356 0002 83B0     		sub	sp, sp, #12
 357              	.LCFI37:
 358              		.cfi_def_cfa_offset 16
 359 0004 00AF     		add	r7, sp, #0
 360              	.LCFI38:
 361              		.cfi_def_cfa_register 7
 362 0006 7860     		str	r0, [r7, #4]
 620:Drivers/STM32F1xx_HAL_Driver/Inc/stm32f1xx_ll_exti.h ****   SET_BIT(EXTI->FTSR, ExtiLine);
ARM GAS  /tmp/ccGBEXMv.s 			page 18


 363              		.loc 1 620 3
 364 0008 054B     		ldr	r3, .L20
 365 000a DA68     		ldr	r2, [r3, #12]
 366 000c 0449     		ldr	r1, .L20
 367 000e 7B68     		ldr	r3, [r7, #4]
 368 0010 1343     		orrs	r3, r3, r2
 369 0012 CB60     		str	r3, [r1, #12]
 621:Drivers/STM32F1xx_HAL_Driver/Inc/stm32f1xx_ll_exti.h **** }
 370              		.loc 1 621 1
 371 0014 00BF     		nop
 372 0016 0C37     		adds	r7, r7, #12
 373              	.LCFI39:
 374              		.cfi_def_cfa_offset 4
 375 0018 BD46     		mov	sp, r7
 376              	.LCFI40:
 377              		.cfi_def_cfa_register 13
 378              		@ sp needed
 379 001a 80BC     		pop	{r7}
 380              	.LCFI41:
 381              		.cfi_restore 7
 382              		.cfi_def_cfa_offset 0
 383 001c 7047     		bx	lr
 384              	.L21:
 385 001e 00BF     		.align	2
 386              	.L20:
 387 0020 00040140 		.word	1073808384
 388              		.cfi_endproc
 389              	.LFE74:
 391              		.section	.text.LL_EXTI_DisableFallingTrig_0_31,"ax",%progbits
 392              		.align	1
 393              		.syntax unified
 394              		.thumb
 395              		.thumb_func
 396              		.fpu softvfp
 398              	LL_EXTI_DisableFallingTrig_0_31:
 399              	.LFB75:
 622:Drivers/STM32F1xx_HAL_Driver/Inc/stm32f1xx_ll_exti.h **** 
 623:Drivers/STM32F1xx_HAL_Driver/Inc/stm32f1xx_ll_exti.h **** 
 624:Drivers/STM32F1xx_HAL_Driver/Inc/stm32f1xx_ll_exti.h **** /**
 625:Drivers/STM32F1xx_HAL_Driver/Inc/stm32f1xx_ll_exti.h ****   * @brief  Disable ExtiLine Falling Edge Trigger for Lines in range 0 to 31
 626:Drivers/STM32F1xx_HAL_Driver/Inc/stm32f1xx_ll_exti.h ****   * @note The configurable wakeup lines are edge-triggered. No glitch must be
 627:Drivers/STM32F1xx_HAL_Driver/Inc/stm32f1xx_ll_exti.h ****   *       generated on these lines. If a Falling edge on a configurable interrupt
 628:Drivers/STM32F1xx_HAL_Driver/Inc/stm32f1xx_ll_exti.h ****   *       line occurs during a write operation in the EXTI_FTSR register, the
 629:Drivers/STM32F1xx_HAL_Driver/Inc/stm32f1xx_ll_exti.h ****   *       pending bit is not set.
 630:Drivers/STM32F1xx_HAL_Driver/Inc/stm32f1xx_ll_exti.h ****   *       Rising and falling edge triggers can be set for the same interrupt line.
 631:Drivers/STM32F1xx_HAL_Driver/Inc/stm32f1xx_ll_exti.h ****   *       In this case, both generate a trigger condition.
 632:Drivers/STM32F1xx_HAL_Driver/Inc/stm32f1xx_ll_exti.h ****   * @rmtoll FTSR        FTx           LL_EXTI_DisableFallingTrig_0_31
 633:Drivers/STM32F1xx_HAL_Driver/Inc/stm32f1xx_ll_exti.h ****   * @param  ExtiLine This parameter can be a combination of the following values:
 634:Drivers/STM32F1xx_HAL_Driver/Inc/stm32f1xx_ll_exti.h ****   *         @arg @ref LL_EXTI_LINE_0
 635:Drivers/STM32F1xx_HAL_Driver/Inc/stm32f1xx_ll_exti.h ****   *         @arg @ref LL_EXTI_LINE_1
 636:Drivers/STM32F1xx_HAL_Driver/Inc/stm32f1xx_ll_exti.h ****   *         @arg @ref LL_EXTI_LINE_2
 637:Drivers/STM32F1xx_HAL_Driver/Inc/stm32f1xx_ll_exti.h ****   *         @arg @ref LL_EXTI_LINE_3
 638:Drivers/STM32F1xx_HAL_Driver/Inc/stm32f1xx_ll_exti.h ****   *         @arg @ref LL_EXTI_LINE_4
 639:Drivers/STM32F1xx_HAL_Driver/Inc/stm32f1xx_ll_exti.h ****   *         @arg @ref LL_EXTI_LINE_5
 640:Drivers/STM32F1xx_HAL_Driver/Inc/stm32f1xx_ll_exti.h ****   *         @arg @ref LL_EXTI_LINE_6
 641:Drivers/STM32F1xx_HAL_Driver/Inc/stm32f1xx_ll_exti.h ****   *         @arg @ref LL_EXTI_LINE_7
 642:Drivers/STM32F1xx_HAL_Driver/Inc/stm32f1xx_ll_exti.h ****   *         @arg @ref LL_EXTI_LINE_8
ARM GAS  /tmp/ccGBEXMv.s 			page 19


 643:Drivers/STM32F1xx_HAL_Driver/Inc/stm32f1xx_ll_exti.h ****   *         @arg @ref LL_EXTI_LINE_9
 644:Drivers/STM32F1xx_HAL_Driver/Inc/stm32f1xx_ll_exti.h ****   *         @arg @ref LL_EXTI_LINE_10
 645:Drivers/STM32F1xx_HAL_Driver/Inc/stm32f1xx_ll_exti.h ****   *         @arg @ref LL_EXTI_LINE_11
 646:Drivers/STM32F1xx_HAL_Driver/Inc/stm32f1xx_ll_exti.h ****   *         @arg @ref LL_EXTI_LINE_12
 647:Drivers/STM32F1xx_HAL_Driver/Inc/stm32f1xx_ll_exti.h ****   *         @arg @ref LL_EXTI_LINE_13
 648:Drivers/STM32F1xx_HAL_Driver/Inc/stm32f1xx_ll_exti.h ****   *         @arg @ref LL_EXTI_LINE_14
 649:Drivers/STM32F1xx_HAL_Driver/Inc/stm32f1xx_ll_exti.h ****   *         @arg @ref LL_EXTI_LINE_15
 650:Drivers/STM32F1xx_HAL_Driver/Inc/stm32f1xx_ll_exti.h ****   *         @arg @ref LL_EXTI_LINE_16
 651:Drivers/STM32F1xx_HAL_Driver/Inc/stm32f1xx_ll_exti.h ****   *         @arg @ref LL_EXTI_LINE_18
 652:Drivers/STM32F1xx_HAL_Driver/Inc/stm32f1xx_ll_exti.h ****   *         @arg @ref LL_EXTI_LINE_19
 653:Drivers/STM32F1xx_HAL_Driver/Inc/stm32f1xx_ll_exti.h ****   * @note   Please check each device line mapping for EXTI Line availability
 654:Drivers/STM32F1xx_HAL_Driver/Inc/stm32f1xx_ll_exti.h ****   * @retval None
 655:Drivers/STM32F1xx_HAL_Driver/Inc/stm32f1xx_ll_exti.h ****   */
 656:Drivers/STM32F1xx_HAL_Driver/Inc/stm32f1xx_ll_exti.h **** __STATIC_INLINE void LL_EXTI_DisableFallingTrig_0_31(uint32_t ExtiLine)
 657:Drivers/STM32F1xx_HAL_Driver/Inc/stm32f1xx_ll_exti.h **** {
 400              		.loc 1 657 1
 401              		.cfi_startproc
 402              		@ args = 0, pretend = 0, frame = 8
 403              		@ frame_needed = 1, uses_anonymous_args = 0
 404              		@ link register save eliminated.
 405 0000 80B4     		push	{r7}
 406              	.LCFI42:
 407              		.cfi_def_cfa_offset 4
 408              		.cfi_offset 7, -4
 409 0002 83B0     		sub	sp, sp, #12
 410              	.LCFI43:
 411              		.cfi_def_cfa_offset 16
 412 0004 00AF     		add	r7, sp, #0
 413              	.LCFI44:
 414              		.cfi_def_cfa_register 7
 415 0006 7860     		str	r0, [r7, #4]
 658:Drivers/STM32F1xx_HAL_Driver/Inc/stm32f1xx_ll_exti.h ****   CLEAR_BIT(EXTI->FTSR, ExtiLine);
 416              		.loc 1 658 3
 417 0008 054B     		ldr	r3, .L23
 418 000a DA68     		ldr	r2, [r3, #12]
 419 000c 7B68     		ldr	r3, [r7, #4]
 420 000e DB43     		mvns	r3, r3
 421 0010 0349     		ldr	r1, .L23
 422 0012 1340     		ands	r3, r3, r2
 423 0014 CB60     		str	r3, [r1, #12]
 659:Drivers/STM32F1xx_HAL_Driver/Inc/stm32f1xx_ll_exti.h **** }
 424              		.loc 1 659 1
 425 0016 00BF     		nop
 426 0018 0C37     		adds	r7, r7, #12
 427              	.LCFI45:
 428              		.cfi_def_cfa_offset 4
 429 001a BD46     		mov	sp, r7
 430              	.LCFI46:
 431              		.cfi_def_cfa_register 13
 432              		@ sp needed
 433 001c 80BC     		pop	{r7}
 434              	.LCFI47:
 435              		.cfi_restore 7
 436              		.cfi_def_cfa_offset 0
 437 001e 7047     		bx	lr
 438              	.L24:
 439              		.align	2
ARM GAS  /tmp/ccGBEXMv.s 			page 20


 440              	.L23:
 441 0020 00040140 		.word	1073808384
 442              		.cfi_endproc
 443              	.LFE75:
 445              		.section	.text.LL_EXTI_DeInit,"ax",%progbits
 446              		.align	1
 447              		.global	LL_EXTI_DeInit
 448              		.syntax unified
 449              		.thumb
 450              		.thumb_func
 451              		.fpu softvfp
 453              	LL_EXTI_DeInit:
 454              	.LFB81:
 455              		.file 2 "Drivers/STM32F1xx_HAL_Driver/Src/stm32f1xx_ll_exti.c"
   1:Drivers/STM32F1xx_HAL_Driver/Src/stm32f1xx_ll_exti.c **** /**
   2:Drivers/STM32F1xx_HAL_Driver/Src/stm32f1xx_ll_exti.c ****   ******************************************************************************
   3:Drivers/STM32F1xx_HAL_Driver/Src/stm32f1xx_ll_exti.c ****   * @file    stm32f1xx_ll_exti.c
   4:Drivers/STM32F1xx_HAL_Driver/Src/stm32f1xx_ll_exti.c ****   * @author  MCD Application Team
   5:Drivers/STM32F1xx_HAL_Driver/Src/stm32f1xx_ll_exti.c ****   * @brief   EXTI LL module driver.
   6:Drivers/STM32F1xx_HAL_Driver/Src/stm32f1xx_ll_exti.c ****   ******************************************************************************
   7:Drivers/STM32F1xx_HAL_Driver/Src/stm32f1xx_ll_exti.c ****   * @attention
   8:Drivers/STM32F1xx_HAL_Driver/Src/stm32f1xx_ll_exti.c ****   *
   9:Drivers/STM32F1xx_HAL_Driver/Src/stm32f1xx_ll_exti.c ****   * <h2><center>&copy; Copyright (c) 2016 STMicroelectronics.
  10:Drivers/STM32F1xx_HAL_Driver/Src/stm32f1xx_ll_exti.c ****   * All rights reserved.</center></h2>
  11:Drivers/STM32F1xx_HAL_Driver/Src/stm32f1xx_ll_exti.c ****   *
  12:Drivers/STM32F1xx_HAL_Driver/Src/stm32f1xx_ll_exti.c ****   * This software component is licensed by ST under BSD 3-Clause license,
  13:Drivers/STM32F1xx_HAL_Driver/Src/stm32f1xx_ll_exti.c ****   * the "License"; You may not use this file except in compliance with the
  14:Drivers/STM32F1xx_HAL_Driver/Src/stm32f1xx_ll_exti.c ****   * License. You may obtain a copy of the License at:
  15:Drivers/STM32F1xx_HAL_Driver/Src/stm32f1xx_ll_exti.c ****   *                        opensource.org/licenses/BSD-3-Clause
  16:Drivers/STM32F1xx_HAL_Driver/Src/stm32f1xx_ll_exti.c ****   *
  17:Drivers/STM32F1xx_HAL_Driver/Src/stm32f1xx_ll_exti.c ****   ******************************************************************************
  18:Drivers/STM32F1xx_HAL_Driver/Src/stm32f1xx_ll_exti.c ****   */
  19:Drivers/STM32F1xx_HAL_Driver/Src/stm32f1xx_ll_exti.c **** 
  20:Drivers/STM32F1xx_HAL_Driver/Src/stm32f1xx_ll_exti.c **** #if defined(USE_FULL_LL_DRIVER)
  21:Drivers/STM32F1xx_HAL_Driver/Src/stm32f1xx_ll_exti.c **** 
  22:Drivers/STM32F1xx_HAL_Driver/Src/stm32f1xx_ll_exti.c **** /* Includes ------------------------------------------------------------------*/
  23:Drivers/STM32F1xx_HAL_Driver/Src/stm32f1xx_ll_exti.c **** #include "stm32f1xx_ll_exti.h"
  24:Drivers/STM32F1xx_HAL_Driver/Src/stm32f1xx_ll_exti.c **** #ifdef  USE_FULL_ASSERT
  25:Drivers/STM32F1xx_HAL_Driver/Src/stm32f1xx_ll_exti.c **** #include "stm32_assert.h"
  26:Drivers/STM32F1xx_HAL_Driver/Src/stm32f1xx_ll_exti.c **** #else
  27:Drivers/STM32F1xx_HAL_Driver/Src/stm32f1xx_ll_exti.c **** #define assert_param(expr) ((void)0U)
  28:Drivers/STM32F1xx_HAL_Driver/Src/stm32f1xx_ll_exti.c **** #endif
  29:Drivers/STM32F1xx_HAL_Driver/Src/stm32f1xx_ll_exti.c **** 
  30:Drivers/STM32F1xx_HAL_Driver/Src/stm32f1xx_ll_exti.c **** /** @addtogroup STM32F1xx_LL_Driver
  31:Drivers/STM32F1xx_HAL_Driver/Src/stm32f1xx_ll_exti.c ****   * @{
  32:Drivers/STM32F1xx_HAL_Driver/Src/stm32f1xx_ll_exti.c ****   */
  33:Drivers/STM32F1xx_HAL_Driver/Src/stm32f1xx_ll_exti.c **** 
  34:Drivers/STM32F1xx_HAL_Driver/Src/stm32f1xx_ll_exti.c **** #if defined (EXTI)
  35:Drivers/STM32F1xx_HAL_Driver/Src/stm32f1xx_ll_exti.c **** 
  36:Drivers/STM32F1xx_HAL_Driver/Src/stm32f1xx_ll_exti.c **** /** @defgroup EXTI_LL EXTI
  37:Drivers/STM32F1xx_HAL_Driver/Src/stm32f1xx_ll_exti.c ****   * @{
  38:Drivers/STM32F1xx_HAL_Driver/Src/stm32f1xx_ll_exti.c ****   */
  39:Drivers/STM32F1xx_HAL_Driver/Src/stm32f1xx_ll_exti.c **** 
  40:Drivers/STM32F1xx_HAL_Driver/Src/stm32f1xx_ll_exti.c **** /* Private types -------------------------------------------------------------*/
  41:Drivers/STM32F1xx_HAL_Driver/Src/stm32f1xx_ll_exti.c **** /* Private variables ---------------------------------------------------------*/
  42:Drivers/STM32F1xx_HAL_Driver/Src/stm32f1xx_ll_exti.c **** /* Private constants ---------------------------------------------------------*/
  43:Drivers/STM32F1xx_HAL_Driver/Src/stm32f1xx_ll_exti.c **** /* Private macros ------------------------------------------------------------*/
ARM GAS  /tmp/ccGBEXMv.s 			page 21


  44:Drivers/STM32F1xx_HAL_Driver/Src/stm32f1xx_ll_exti.c **** /** @addtogroup EXTI_LL_Private_Macros
  45:Drivers/STM32F1xx_HAL_Driver/Src/stm32f1xx_ll_exti.c ****   * @{
  46:Drivers/STM32F1xx_HAL_Driver/Src/stm32f1xx_ll_exti.c ****   */
  47:Drivers/STM32F1xx_HAL_Driver/Src/stm32f1xx_ll_exti.c **** 
  48:Drivers/STM32F1xx_HAL_Driver/Src/stm32f1xx_ll_exti.c **** #define IS_LL_EXTI_LINE_0_31(__VALUE__)              (((__VALUE__) & ~LL_EXTI_LINE_ALL_0_31) == 0x0
  49:Drivers/STM32F1xx_HAL_Driver/Src/stm32f1xx_ll_exti.c **** 
  50:Drivers/STM32F1xx_HAL_Driver/Src/stm32f1xx_ll_exti.c **** #define IS_LL_EXTI_MODE(__VALUE__)                   (((__VALUE__) == LL_EXTI_MODE_IT)            \
  51:Drivers/STM32F1xx_HAL_Driver/Src/stm32f1xx_ll_exti.c ****                                                    || ((__VALUE__) == LL_EXTI_MODE_EVENT)         \
  52:Drivers/STM32F1xx_HAL_Driver/Src/stm32f1xx_ll_exti.c ****                                                    || ((__VALUE__) == LL_EXTI_MODE_IT_EVENT))
  53:Drivers/STM32F1xx_HAL_Driver/Src/stm32f1xx_ll_exti.c **** 
  54:Drivers/STM32F1xx_HAL_Driver/Src/stm32f1xx_ll_exti.c **** 
  55:Drivers/STM32F1xx_HAL_Driver/Src/stm32f1xx_ll_exti.c **** #define IS_LL_EXTI_TRIGGER(__VALUE__)                (((__VALUE__) == LL_EXTI_TRIGGER_NONE)       \
  56:Drivers/STM32F1xx_HAL_Driver/Src/stm32f1xx_ll_exti.c ****                                                    || ((__VALUE__) == LL_EXTI_TRIGGER_RISING)     \
  57:Drivers/STM32F1xx_HAL_Driver/Src/stm32f1xx_ll_exti.c ****                                                    || ((__VALUE__) == LL_EXTI_TRIGGER_FALLING)    \
  58:Drivers/STM32F1xx_HAL_Driver/Src/stm32f1xx_ll_exti.c ****                                                    || ((__VALUE__) == LL_EXTI_TRIGGER_RISING_FALLIN
  59:Drivers/STM32F1xx_HAL_Driver/Src/stm32f1xx_ll_exti.c **** 
  60:Drivers/STM32F1xx_HAL_Driver/Src/stm32f1xx_ll_exti.c **** /**
  61:Drivers/STM32F1xx_HAL_Driver/Src/stm32f1xx_ll_exti.c ****   * @}
  62:Drivers/STM32F1xx_HAL_Driver/Src/stm32f1xx_ll_exti.c ****   */
  63:Drivers/STM32F1xx_HAL_Driver/Src/stm32f1xx_ll_exti.c **** 
  64:Drivers/STM32F1xx_HAL_Driver/Src/stm32f1xx_ll_exti.c **** /* Private function prototypes -----------------------------------------------*/
  65:Drivers/STM32F1xx_HAL_Driver/Src/stm32f1xx_ll_exti.c **** 
  66:Drivers/STM32F1xx_HAL_Driver/Src/stm32f1xx_ll_exti.c **** /* Exported functions --------------------------------------------------------*/
  67:Drivers/STM32F1xx_HAL_Driver/Src/stm32f1xx_ll_exti.c **** /** @addtogroup EXTI_LL_Exported_Functions
  68:Drivers/STM32F1xx_HAL_Driver/Src/stm32f1xx_ll_exti.c ****   * @{
  69:Drivers/STM32F1xx_HAL_Driver/Src/stm32f1xx_ll_exti.c ****   */
  70:Drivers/STM32F1xx_HAL_Driver/Src/stm32f1xx_ll_exti.c **** 
  71:Drivers/STM32F1xx_HAL_Driver/Src/stm32f1xx_ll_exti.c **** /** @addtogroup EXTI_LL_EF_Init
  72:Drivers/STM32F1xx_HAL_Driver/Src/stm32f1xx_ll_exti.c ****   * @{
  73:Drivers/STM32F1xx_HAL_Driver/Src/stm32f1xx_ll_exti.c ****   */
  74:Drivers/STM32F1xx_HAL_Driver/Src/stm32f1xx_ll_exti.c **** 
  75:Drivers/STM32F1xx_HAL_Driver/Src/stm32f1xx_ll_exti.c **** /**
  76:Drivers/STM32F1xx_HAL_Driver/Src/stm32f1xx_ll_exti.c ****   * @brief  De-initialize the EXTI registers to their default reset values.
  77:Drivers/STM32F1xx_HAL_Driver/Src/stm32f1xx_ll_exti.c ****   * @retval An ErrorStatus enumeration value:
  78:Drivers/STM32F1xx_HAL_Driver/Src/stm32f1xx_ll_exti.c ****   *          - SUCCESS: EXTI registers are de-initialized
  79:Drivers/STM32F1xx_HAL_Driver/Src/stm32f1xx_ll_exti.c ****   *          - ERROR: not applicable
  80:Drivers/STM32F1xx_HAL_Driver/Src/stm32f1xx_ll_exti.c ****   */
  81:Drivers/STM32F1xx_HAL_Driver/Src/stm32f1xx_ll_exti.c **** uint32_t LL_EXTI_DeInit(void)
  82:Drivers/STM32F1xx_HAL_Driver/Src/stm32f1xx_ll_exti.c **** {
 456              		.loc 2 82 1
 457              		.cfi_startproc
 458              		@ args = 0, pretend = 0, frame = 0
 459              		@ frame_needed = 1, uses_anonymous_args = 0
 460              		@ link register save eliminated.
 461 0000 80B4     		push	{r7}
 462              	.LCFI48:
 463              		.cfi_def_cfa_offset 4
 464              		.cfi_offset 7, -4
 465 0002 00AF     		add	r7, sp, #0
 466              	.LCFI49:
 467              		.cfi_def_cfa_register 7
  83:Drivers/STM32F1xx_HAL_Driver/Src/stm32f1xx_ll_exti.c ****   /* Interrupt mask register set to default reset values */
  84:Drivers/STM32F1xx_HAL_Driver/Src/stm32f1xx_ll_exti.c ****   LL_EXTI_WriteReg(IMR,   0x00000000U);
 468              		.loc 2 84 3
 469 0004 0B4B     		ldr	r3, .L27
 470 0006 0022     		movs	r2, #0
 471 0008 1A60     		str	r2, [r3]
ARM GAS  /tmp/ccGBEXMv.s 			page 22


  85:Drivers/STM32F1xx_HAL_Driver/Src/stm32f1xx_ll_exti.c ****   /* Event mask register set to default reset values */
  86:Drivers/STM32F1xx_HAL_Driver/Src/stm32f1xx_ll_exti.c ****   LL_EXTI_WriteReg(EMR,   0x00000000U);
 472              		.loc 2 86 3
 473 000a 0A4B     		ldr	r3, .L27
 474 000c 0022     		movs	r2, #0
 475 000e 5A60     		str	r2, [r3, #4]
  87:Drivers/STM32F1xx_HAL_Driver/Src/stm32f1xx_ll_exti.c ****   /* Rising Trigger selection register set to default reset values */
  88:Drivers/STM32F1xx_HAL_Driver/Src/stm32f1xx_ll_exti.c ****   LL_EXTI_WriteReg(RTSR,  0x00000000U);
 476              		.loc 2 88 3
 477 0010 084B     		ldr	r3, .L27
 478 0012 0022     		movs	r2, #0
 479 0014 9A60     		str	r2, [r3, #8]
  89:Drivers/STM32F1xx_HAL_Driver/Src/stm32f1xx_ll_exti.c ****   /* Falling Trigger selection register set to default reset values */
  90:Drivers/STM32F1xx_HAL_Driver/Src/stm32f1xx_ll_exti.c ****   LL_EXTI_WriteReg(FTSR,  0x00000000U);
 480              		.loc 2 90 3
 481 0016 074B     		ldr	r3, .L27
 482 0018 0022     		movs	r2, #0
 483 001a DA60     		str	r2, [r3, #12]
  91:Drivers/STM32F1xx_HAL_Driver/Src/stm32f1xx_ll_exti.c ****   /* Software interrupt event register set to default reset values */
  92:Drivers/STM32F1xx_HAL_Driver/Src/stm32f1xx_ll_exti.c ****   LL_EXTI_WriteReg(SWIER, 0x00000000U);
 484              		.loc 2 92 3
 485 001c 054B     		ldr	r3, .L27
 486 001e 0022     		movs	r2, #0
 487 0020 1A61     		str	r2, [r3, #16]
  93:Drivers/STM32F1xx_HAL_Driver/Src/stm32f1xx_ll_exti.c ****   /* Pending register clear */
  94:Drivers/STM32F1xx_HAL_Driver/Src/stm32f1xx_ll_exti.c ****   LL_EXTI_WriteReg(PR,    0x000FFFFFU);
 488              		.loc 2 94 3
 489 0022 044B     		ldr	r3, .L27
 490 0024 044A     		ldr	r2, .L27+4
 491 0026 5A61     		str	r2, [r3, #20]
  95:Drivers/STM32F1xx_HAL_Driver/Src/stm32f1xx_ll_exti.c **** 
  96:Drivers/STM32F1xx_HAL_Driver/Src/stm32f1xx_ll_exti.c ****   return SUCCESS;
 492              		.loc 2 96 10
 493 0028 0023     		movs	r3, #0
  97:Drivers/STM32F1xx_HAL_Driver/Src/stm32f1xx_ll_exti.c **** }
 494              		.loc 2 97 1
 495 002a 1846     		mov	r0, r3
 496 002c BD46     		mov	sp, r7
 497              	.LCFI50:
 498              		.cfi_def_cfa_register 13
 499              		@ sp needed
 500 002e 80BC     		pop	{r7}
 501              	.LCFI51:
 502              		.cfi_restore 7
 503              		.cfi_def_cfa_offset 0
 504 0030 7047     		bx	lr
 505              	.L28:
 506 0032 00BF     		.align	2
 507              	.L27:
 508 0034 00040140 		.word	1073808384
 509 0038 FFFF0F00 		.word	1048575
 510              		.cfi_endproc
 511              	.LFE81:
 513              		.section	.text.LL_EXTI_Init,"ax",%progbits
 514              		.align	1
 515              		.global	LL_EXTI_Init
 516              		.syntax unified
ARM GAS  /tmp/ccGBEXMv.s 			page 23


 517              		.thumb
 518              		.thumb_func
 519              		.fpu softvfp
 521              	LL_EXTI_Init:
 522              	.LFB82:
  98:Drivers/STM32F1xx_HAL_Driver/Src/stm32f1xx_ll_exti.c **** 
  99:Drivers/STM32F1xx_HAL_Driver/Src/stm32f1xx_ll_exti.c **** /**
 100:Drivers/STM32F1xx_HAL_Driver/Src/stm32f1xx_ll_exti.c ****   * @brief  Initialize the EXTI registers according to the specified parameters in EXTI_InitStruct.
 101:Drivers/STM32F1xx_HAL_Driver/Src/stm32f1xx_ll_exti.c ****   * @param  EXTI_InitStruct pointer to a @ref LL_EXTI_InitTypeDef structure.
 102:Drivers/STM32F1xx_HAL_Driver/Src/stm32f1xx_ll_exti.c ****   * @retval An ErrorStatus enumeration value:
 103:Drivers/STM32F1xx_HAL_Driver/Src/stm32f1xx_ll_exti.c ****   *          - SUCCESS: EXTI registers are initialized
 104:Drivers/STM32F1xx_HAL_Driver/Src/stm32f1xx_ll_exti.c ****   *          - ERROR: not applicable
 105:Drivers/STM32F1xx_HAL_Driver/Src/stm32f1xx_ll_exti.c ****   */
 106:Drivers/STM32F1xx_HAL_Driver/Src/stm32f1xx_ll_exti.c **** uint32_t LL_EXTI_Init(LL_EXTI_InitTypeDef *EXTI_InitStruct)
 107:Drivers/STM32F1xx_HAL_Driver/Src/stm32f1xx_ll_exti.c **** {
 523              		.loc 2 107 1
 524              		.cfi_startproc
 525              		@ args = 0, pretend = 0, frame = 16
 526              		@ frame_needed = 1, uses_anonymous_args = 0
 527 0000 80B5     		push	{r7, lr}
 528              	.LCFI52:
 529              		.cfi_def_cfa_offset 8
 530              		.cfi_offset 7, -8
 531              		.cfi_offset 14, -4
 532 0002 84B0     		sub	sp, sp, #16
 533              	.LCFI53:
 534              		.cfi_def_cfa_offset 24
 535 0004 00AF     		add	r7, sp, #0
 536              	.LCFI54:
 537              		.cfi_def_cfa_register 7
 538 0006 7860     		str	r0, [r7, #4]
 108:Drivers/STM32F1xx_HAL_Driver/Src/stm32f1xx_ll_exti.c ****   ErrorStatus status = SUCCESS;
 539              		.loc 2 108 15
 540 0008 0023     		movs	r3, #0
 541 000a FB73     		strb	r3, [r7, #15]
 109:Drivers/STM32F1xx_HAL_Driver/Src/stm32f1xx_ll_exti.c ****   /* Check the parameters */
 110:Drivers/STM32F1xx_HAL_Driver/Src/stm32f1xx_ll_exti.c ****   assert_param(IS_LL_EXTI_LINE_0_31(EXTI_InitStruct->Line_0_31));
 111:Drivers/STM32F1xx_HAL_Driver/Src/stm32f1xx_ll_exti.c ****   assert_param(IS_FUNCTIONAL_STATE(EXTI_InitStruct->LineCommand));
 112:Drivers/STM32F1xx_HAL_Driver/Src/stm32f1xx_ll_exti.c ****   assert_param(IS_LL_EXTI_MODE(EXTI_InitStruct->Mode));
 113:Drivers/STM32F1xx_HAL_Driver/Src/stm32f1xx_ll_exti.c **** 
 114:Drivers/STM32F1xx_HAL_Driver/Src/stm32f1xx_ll_exti.c ****   /* ENABLE LineCommand */
 115:Drivers/STM32F1xx_HAL_Driver/Src/stm32f1xx_ll_exti.c ****   if (EXTI_InitStruct->LineCommand != DISABLE)
 542              		.loc 2 115 22
 543 000c 7B68     		ldr	r3, [r7, #4]
 544 000e 1B79     		ldrb	r3, [r3, #4]	@ zero_extendqisi2
 545              		.loc 2 115 6
 546 0010 002B     		cmp	r3, #0
 547 0012 65D0     		beq	.L30
 116:Drivers/STM32F1xx_HAL_Driver/Src/stm32f1xx_ll_exti.c ****   {
 117:Drivers/STM32F1xx_HAL_Driver/Src/stm32f1xx_ll_exti.c ****     assert_param(IS_LL_EXTI_TRIGGER(EXTI_InitStruct->Trigger));
 118:Drivers/STM32F1xx_HAL_Driver/Src/stm32f1xx_ll_exti.c **** 
 119:Drivers/STM32F1xx_HAL_Driver/Src/stm32f1xx_ll_exti.c ****     /* Configure EXTI Lines in range from 0 to 31 */
 120:Drivers/STM32F1xx_HAL_Driver/Src/stm32f1xx_ll_exti.c ****     if (EXTI_InitStruct->Line_0_31 != LL_EXTI_LINE_NONE)
 548              		.loc 2 120 24
 549 0014 7B68     		ldr	r3, [r7, #4]
 550 0016 1B68     		ldr	r3, [r3]
 551              		.loc 2 120 8
ARM GAS  /tmp/ccGBEXMv.s 			page 24


 552 0018 002B     		cmp	r3, #0
 553 001a 6CD0     		beq	.L43
 121:Drivers/STM32F1xx_HAL_Driver/Src/stm32f1xx_ll_exti.c ****     {
 122:Drivers/STM32F1xx_HAL_Driver/Src/stm32f1xx_ll_exti.c ****       switch (EXTI_InitStruct->Mode)
 554              		.loc 2 122 30
 555 001c 7B68     		ldr	r3, [r7, #4]
 556 001e 5B79     		ldrb	r3, [r3, #5]	@ zero_extendqisi2
 557              		.loc 2 122 7
 558 0020 022B     		cmp	r3, #2
 559 0022 1CD0     		beq	.L32
 560 0024 022B     		cmp	r3, #2
 561 0026 25DC     		bgt	.L33
 562 0028 002B     		cmp	r3, #0
 563 002a 02D0     		beq	.L34
 564 002c 012B     		cmp	r3, #1
 565 002e 0BD0     		beq	.L35
 566 0030 20E0     		b	.L33
 567              	.L34:
 123:Drivers/STM32F1xx_HAL_Driver/Src/stm32f1xx_ll_exti.c ****       {
 124:Drivers/STM32F1xx_HAL_Driver/Src/stm32f1xx_ll_exti.c ****         case LL_EXTI_MODE_IT:
 125:Drivers/STM32F1xx_HAL_Driver/Src/stm32f1xx_ll_exti.c ****           /* First Disable Event on provided Lines */
 126:Drivers/STM32F1xx_HAL_Driver/Src/stm32f1xx_ll_exti.c ****           LL_EXTI_DisableEvent_0_31(EXTI_InitStruct->Line_0_31);
 568              		.loc 2 126 11
 569 0032 7B68     		ldr	r3, [r7, #4]
 570 0034 1B68     		ldr	r3, [r3]
 571 0036 1846     		mov	r0, r3
 572 0038 FFF7FEFF 		bl	LL_EXTI_DisableEvent_0_31
 127:Drivers/STM32F1xx_HAL_Driver/Src/stm32f1xx_ll_exti.c ****           /* Then Enable IT on provided Lines */
 128:Drivers/STM32F1xx_HAL_Driver/Src/stm32f1xx_ll_exti.c ****           LL_EXTI_EnableIT_0_31(EXTI_InitStruct->Line_0_31);
 573              		.loc 2 128 11
 574 003c 7B68     		ldr	r3, [r7, #4]
 575 003e 1B68     		ldr	r3, [r3]
 576 0040 1846     		mov	r0, r3
 577 0042 FFF7FEFF 		bl	LL_EXTI_EnableIT_0_31
 129:Drivers/STM32F1xx_HAL_Driver/Src/stm32f1xx_ll_exti.c ****           break;
 578              		.loc 2 129 11
 579 0046 18E0     		b	.L36
 580              	.L35:
 130:Drivers/STM32F1xx_HAL_Driver/Src/stm32f1xx_ll_exti.c ****         case LL_EXTI_MODE_EVENT:
 131:Drivers/STM32F1xx_HAL_Driver/Src/stm32f1xx_ll_exti.c ****           /* First Disable IT on provided Lines */
 132:Drivers/STM32F1xx_HAL_Driver/Src/stm32f1xx_ll_exti.c ****           LL_EXTI_DisableIT_0_31(EXTI_InitStruct->Line_0_31);
 581              		.loc 2 132 11
 582 0048 7B68     		ldr	r3, [r7, #4]
 583 004a 1B68     		ldr	r3, [r3]
 584 004c 1846     		mov	r0, r3
 585 004e FFF7FEFF 		bl	LL_EXTI_DisableIT_0_31
 133:Drivers/STM32F1xx_HAL_Driver/Src/stm32f1xx_ll_exti.c ****           /* Then Enable Event on provided Lines */
 134:Drivers/STM32F1xx_HAL_Driver/Src/stm32f1xx_ll_exti.c ****           LL_EXTI_EnableEvent_0_31(EXTI_InitStruct->Line_0_31);
 586              		.loc 2 134 11
 587 0052 7B68     		ldr	r3, [r7, #4]
 588 0054 1B68     		ldr	r3, [r3]
 589 0056 1846     		mov	r0, r3
 590 0058 FFF7FEFF 		bl	LL_EXTI_EnableEvent_0_31
 135:Drivers/STM32F1xx_HAL_Driver/Src/stm32f1xx_ll_exti.c ****           break;
 591              		.loc 2 135 11
 592 005c 0DE0     		b	.L36
 593              	.L32:
ARM GAS  /tmp/ccGBEXMv.s 			page 25


 136:Drivers/STM32F1xx_HAL_Driver/Src/stm32f1xx_ll_exti.c ****         case LL_EXTI_MODE_IT_EVENT:
 137:Drivers/STM32F1xx_HAL_Driver/Src/stm32f1xx_ll_exti.c ****           /* Directly Enable IT & Event on provided Lines */
 138:Drivers/STM32F1xx_HAL_Driver/Src/stm32f1xx_ll_exti.c ****           LL_EXTI_EnableIT_0_31(EXTI_InitStruct->Line_0_31);
 594              		.loc 2 138 11
 595 005e 7B68     		ldr	r3, [r7, #4]
 596 0060 1B68     		ldr	r3, [r3]
 597 0062 1846     		mov	r0, r3
 598 0064 FFF7FEFF 		bl	LL_EXTI_EnableIT_0_31
 139:Drivers/STM32F1xx_HAL_Driver/Src/stm32f1xx_ll_exti.c ****           LL_EXTI_EnableEvent_0_31(EXTI_InitStruct->Line_0_31);
 599              		.loc 2 139 11
 600 0068 7B68     		ldr	r3, [r7, #4]
 601 006a 1B68     		ldr	r3, [r3]
 602 006c 1846     		mov	r0, r3
 603 006e FFF7FEFF 		bl	LL_EXTI_EnableEvent_0_31
 140:Drivers/STM32F1xx_HAL_Driver/Src/stm32f1xx_ll_exti.c ****           break;
 604              		.loc 2 140 11
 605 0072 02E0     		b	.L36
 606              	.L33:
 141:Drivers/STM32F1xx_HAL_Driver/Src/stm32f1xx_ll_exti.c ****         default:
 142:Drivers/STM32F1xx_HAL_Driver/Src/stm32f1xx_ll_exti.c ****           status = ERROR;
 607              		.loc 2 142 18
 608 0074 0123     		movs	r3, #1
 609 0076 FB73     		strb	r3, [r7, #15]
 143:Drivers/STM32F1xx_HAL_Driver/Src/stm32f1xx_ll_exti.c ****           break;
 610              		.loc 2 143 11
 611 0078 00BF     		nop
 612              	.L36:
 144:Drivers/STM32F1xx_HAL_Driver/Src/stm32f1xx_ll_exti.c ****       }
 145:Drivers/STM32F1xx_HAL_Driver/Src/stm32f1xx_ll_exti.c ****       if (EXTI_InitStruct->Trigger != LL_EXTI_TRIGGER_NONE)
 613              		.loc 2 145 26
 614 007a 7B68     		ldr	r3, [r7, #4]
 615 007c 9B79     		ldrb	r3, [r3, #6]	@ zero_extendqisi2
 616              		.loc 2 145 10
 617 007e 002B     		cmp	r3, #0
 618 0080 39D0     		beq	.L43
 146:Drivers/STM32F1xx_HAL_Driver/Src/stm32f1xx_ll_exti.c ****       {
 147:Drivers/STM32F1xx_HAL_Driver/Src/stm32f1xx_ll_exti.c ****         switch (EXTI_InitStruct->Trigger)
 619              		.loc 2 147 32
 620 0082 7B68     		ldr	r3, [r7, #4]
 621 0084 9B79     		ldrb	r3, [r3, #6]	@ zero_extendqisi2
 622              		.loc 2 147 9
 623 0086 032B     		cmp	r3, #3
 624 0088 1CD0     		beq	.L37
 625 008a 032B     		cmp	r3, #3
 626 008c 25DC     		bgt	.L38
 627 008e 012B     		cmp	r3, #1
 628 0090 02D0     		beq	.L39
 629 0092 022B     		cmp	r3, #2
 630 0094 0BD0     		beq	.L40
 631 0096 20E0     		b	.L38
 632              	.L39:
 148:Drivers/STM32F1xx_HAL_Driver/Src/stm32f1xx_ll_exti.c ****         {
 149:Drivers/STM32F1xx_HAL_Driver/Src/stm32f1xx_ll_exti.c ****           case LL_EXTI_TRIGGER_RISING:
 150:Drivers/STM32F1xx_HAL_Driver/Src/stm32f1xx_ll_exti.c ****             /* First Disable Falling Trigger on provided Lines */
 151:Drivers/STM32F1xx_HAL_Driver/Src/stm32f1xx_ll_exti.c ****             LL_EXTI_DisableFallingTrig_0_31(EXTI_InitStruct->Line_0_31);
 633              		.loc 2 151 13
 634 0098 7B68     		ldr	r3, [r7, #4]
ARM GAS  /tmp/ccGBEXMv.s 			page 26


 635 009a 1B68     		ldr	r3, [r3]
 636 009c 1846     		mov	r0, r3
 637 009e FFF7FEFF 		bl	LL_EXTI_DisableFallingTrig_0_31
 152:Drivers/STM32F1xx_HAL_Driver/Src/stm32f1xx_ll_exti.c ****             /* Then Enable Rising Trigger on provided Lines */
 153:Drivers/STM32F1xx_HAL_Driver/Src/stm32f1xx_ll_exti.c ****             LL_EXTI_EnableRisingTrig_0_31(EXTI_InitStruct->Line_0_31);
 638              		.loc 2 153 13
 639 00a2 7B68     		ldr	r3, [r7, #4]
 640 00a4 1B68     		ldr	r3, [r3]
 641 00a6 1846     		mov	r0, r3
 642 00a8 FFF7FEFF 		bl	LL_EXTI_EnableRisingTrig_0_31
 154:Drivers/STM32F1xx_HAL_Driver/Src/stm32f1xx_ll_exti.c ****             break;
 643              		.loc 2 154 13
 644 00ac 24E0     		b	.L41
 645              	.L40:
 155:Drivers/STM32F1xx_HAL_Driver/Src/stm32f1xx_ll_exti.c ****           case LL_EXTI_TRIGGER_FALLING:
 156:Drivers/STM32F1xx_HAL_Driver/Src/stm32f1xx_ll_exti.c ****             /* First Disable Rising Trigger on provided Lines */
 157:Drivers/STM32F1xx_HAL_Driver/Src/stm32f1xx_ll_exti.c ****             LL_EXTI_DisableRisingTrig_0_31(EXTI_InitStruct->Line_0_31);
 646              		.loc 2 157 13
 647 00ae 7B68     		ldr	r3, [r7, #4]
 648 00b0 1B68     		ldr	r3, [r3]
 649 00b2 1846     		mov	r0, r3
 650 00b4 FFF7FEFF 		bl	LL_EXTI_DisableRisingTrig_0_31
 158:Drivers/STM32F1xx_HAL_Driver/Src/stm32f1xx_ll_exti.c ****             /* Then Enable Falling Trigger on provided Lines */
 159:Drivers/STM32F1xx_HAL_Driver/Src/stm32f1xx_ll_exti.c ****             LL_EXTI_EnableFallingTrig_0_31(EXTI_InitStruct->Line_0_31);
 651              		.loc 2 159 13
 652 00b8 7B68     		ldr	r3, [r7, #4]
 653 00ba 1B68     		ldr	r3, [r3]
 654 00bc 1846     		mov	r0, r3
 655 00be FFF7FEFF 		bl	LL_EXTI_EnableFallingTrig_0_31
 160:Drivers/STM32F1xx_HAL_Driver/Src/stm32f1xx_ll_exti.c ****             break;
 656              		.loc 2 160 13
 657 00c2 19E0     		b	.L41
 658              	.L37:
 161:Drivers/STM32F1xx_HAL_Driver/Src/stm32f1xx_ll_exti.c ****           case LL_EXTI_TRIGGER_RISING_FALLING:
 162:Drivers/STM32F1xx_HAL_Driver/Src/stm32f1xx_ll_exti.c ****             LL_EXTI_EnableRisingTrig_0_31(EXTI_InitStruct->Line_0_31);
 659              		.loc 2 162 13
 660 00c4 7B68     		ldr	r3, [r7, #4]
 661 00c6 1B68     		ldr	r3, [r3]
 662 00c8 1846     		mov	r0, r3
 663 00ca FFF7FEFF 		bl	LL_EXTI_EnableRisingTrig_0_31
 163:Drivers/STM32F1xx_HAL_Driver/Src/stm32f1xx_ll_exti.c ****             LL_EXTI_EnableFallingTrig_0_31(EXTI_InitStruct->Line_0_31);
 664              		.loc 2 163 13
 665 00ce 7B68     		ldr	r3, [r7, #4]
 666 00d0 1B68     		ldr	r3, [r3]
 667 00d2 1846     		mov	r0, r3
 668 00d4 FFF7FEFF 		bl	LL_EXTI_EnableFallingTrig_0_31
 164:Drivers/STM32F1xx_HAL_Driver/Src/stm32f1xx_ll_exti.c ****             break;
 669              		.loc 2 164 13
 670 00d8 0EE0     		b	.L41
 671              	.L38:
 165:Drivers/STM32F1xx_HAL_Driver/Src/stm32f1xx_ll_exti.c ****           default:
 166:Drivers/STM32F1xx_HAL_Driver/Src/stm32f1xx_ll_exti.c ****             status = ERROR;
 672              		.loc 2 166 20
 673 00da 0123     		movs	r3, #1
 674 00dc FB73     		strb	r3, [r7, #15]
 167:Drivers/STM32F1xx_HAL_Driver/Src/stm32f1xx_ll_exti.c ****             break;
 675              		.loc 2 167 13
ARM GAS  /tmp/ccGBEXMv.s 			page 27


 676 00de 0BE0     		b	.L41
 677              	.L30:
 168:Drivers/STM32F1xx_HAL_Driver/Src/stm32f1xx_ll_exti.c ****         }
 169:Drivers/STM32F1xx_HAL_Driver/Src/stm32f1xx_ll_exti.c ****       }
 170:Drivers/STM32F1xx_HAL_Driver/Src/stm32f1xx_ll_exti.c ****     }
 171:Drivers/STM32F1xx_HAL_Driver/Src/stm32f1xx_ll_exti.c ****   }
 172:Drivers/STM32F1xx_HAL_Driver/Src/stm32f1xx_ll_exti.c ****   /* DISABLE LineCommand */
 173:Drivers/STM32F1xx_HAL_Driver/Src/stm32f1xx_ll_exti.c ****   else
 174:Drivers/STM32F1xx_HAL_Driver/Src/stm32f1xx_ll_exti.c ****   {
 175:Drivers/STM32F1xx_HAL_Driver/Src/stm32f1xx_ll_exti.c ****     /* De-configure EXTI Lines in range from 0 to 31 */
 176:Drivers/STM32F1xx_HAL_Driver/Src/stm32f1xx_ll_exti.c ****     LL_EXTI_DisableIT_0_31(EXTI_InitStruct->Line_0_31);
 678              		.loc 2 176 5
 679 00e0 7B68     		ldr	r3, [r7, #4]
 680 00e2 1B68     		ldr	r3, [r3]
 681 00e4 1846     		mov	r0, r3
 682 00e6 FFF7FEFF 		bl	LL_EXTI_DisableIT_0_31
 177:Drivers/STM32F1xx_HAL_Driver/Src/stm32f1xx_ll_exti.c ****     LL_EXTI_DisableEvent_0_31(EXTI_InitStruct->Line_0_31);
 683              		.loc 2 177 5
 684 00ea 7B68     		ldr	r3, [r7, #4]
 685 00ec 1B68     		ldr	r3, [r3]
 686 00ee 1846     		mov	r0, r3
 687 00f0 FFF7FEFF 		bl	LL_EXTI_DisableEvent_0_31
 688 00f4 00E0     		b	.L41
 689              	.L43:
 169:Drivers/STM32F1xx_HAL_Driver/Src/stm32f1xx_ll_exti.c ****     }
 690              		.loc 2 169 7
 691 00f6 00BF     		nop
 692              	.L41:
 178:Drivers/STM32F1xx_HAL_Driver/Src/stm32f1xx_ll_exti.c ****   }
 179:Drivers/STM32F1xx_HAL_Driver/Src/stm32f1xx_ll_exti.c ****   return status;
 693              		.loc 2 179 10
 694 00f8 FB7B     		ldrb	r3, [r7, #15]	@ zero_extendqisi2
 180:Drivers/STM32F1xx_HAL_Driver/Src/stm32f1xx_ll_exti.c **** }
 695              		.loc 2 180 1
 696 00fa 1846     		mov	r0, r3
 697 00fc 1037     		adds	r7, r7, #16
 698              	.LCFI55:
 699              		.cfi_def_cfa_offset 8
 700 00fe BD46     		mov	sp, r7
 701              	.LCFI56:
 702              		.cfi_def_cfa_register 13
 703              		@ sp needed
 704 0100 80BD     		pop	{r7, pc}
 705              		.cfi_endproc
 706              	.LFE82:
 708              		.section	.text.LL_EXTI_StructInit,"ax",%progbits
 709              		.align	1
 710              		.global	LL_EXTI_StructInit
 711              		.syntax unified
 712              		.thumb
 713              		.thumb_func
 714              		.fpu softvfp
 716              	LL_EXTI_StructInit:
 717              	.LFB83:
 181:Drivers/STM32F1xx_HAL_Driver/Src/stm32f1xx_ll_exti.c **** 
 182:Drivers/STM32F1xx_HAL_Driver/Src/stm32f1xx_ll_exti.c **** /**
 183:Drivers/STM32F1xx_HAL_Driver/Src/stm32f1xx_ll_exti.c ****   * @brief  Set each @ref LL_EXTI_InitTypeDef field to default value.
ARM GAS  /tmp/ccGBEXMv.s 			page 28


 184:Drivers/STM32F1xx_HAL_Driver/Src/stm32f1xx_ll_exti.c ****   * @param  EXTI_InitStruct Pointer to a @ref LL_EXTI_InitTypeDef structure.
 185:Drivers/STM32F1xx_HAL_Driver/Src/stm32f1xx_ll_exti.c ****   * @retval None
 186:Drivers/STM32F1xx_HAL_Driver/Src/stm32f1xx_ll_exti.c ****   */
 187:Drivers/STM32F1xx_HAL_Driver/Src/stm32f1xx_ll_exti.c **** void LL_EXTI_StructInit(LL_EXTI_InitTypeDef *EXTI_InitStruct)
 188:Drivers/STM32F1xx_HAL_Driver/Src/stm32f1xx_ll_exti.c **** {
 718              		.loc 2 188 1
 719              		.cfi_startproc
 720              		@ args = 0, pretend = 0, frame = 8
 721              		@ frame_needed = 1, uses_anonymous_args = 0
 722              		@ link register save eliminated.
 723 0000 80B4     		push	{r7}
 724              	.LCFI57:
 725              		.cfi_def_cfa_offset 4
 726              		.cfi_offset 7, -4
 727 0002 83B0     		sub	sp, sp, #12
 728              	.LCFI58:
 729              		.cfi_def_cfa_offset 16
 730 0004 00AF     		add	r7, sp, #0
 731              	.LCFI59:
 732              		.cfi_def_cfa_register 7
 733 0006 7860     		str	r0, [r7, #4]
 189:Drivers/STM32F1xx_HAL_Driver/Src/stm32f1xx_ll_exti.c ****   EXTI_InitStruct->Line_0_31      = LL_EXTI_LINE_NONE;
 734              		.loc 2 189 35
 735 0008 7B68     		ldr	r3, [r7, #4]
 736 000a 0022     		movs	r2, #0
 737 000c 1A60     		str	r2, [r3]
 190:Drivers/STM32F1xx_HAL_Driver/Src/stm32f1xx_ll_exti.c ****   EXTI_InitStruct->LineCommand    = DISABLE;
 738              		.loc 2 190 35
 739 000e 7B68     		ldr	r3, [r7, #4]
 740 0010 0022     		movs	r2, #0
 741 0012 1A71     		strb	r2, [r3, #4]
 191:Drivers/STM32F1xx_HAL_Driver/Src/stm32f1xx_ll_exti.c ****   EXTI_InitStruct->Mode           = LL_EXTI_MODE_IT;
 742              		.loc 2 191 35
 743 0014 7B68     		ldr	r3, [r7, #4]
 744 0016 0022     		movs	r2, #0
 745 0018 5A71     		strb	r2, [r3, #5]
 192:Drivers/STM32F1xx_HAL_Driver/Src/stm32f1xx_ll_exti.c ****   EXTI_InitStruct->Trigger        = LL_EXTI_TRIGGER_FALLING;
 746              		.loc 2 192 35
 747 001a 7B68     		ldr	r3, [r7, #4]
 748 001c 0222     		movs	r2, #2
 749 001e 9A71     		strb	r2, [r3, #6]
 193:Drivers/STM32F1xx_HAL_Driver/Src/stm32f1xx_ll_exti.c **** }
 750              		.loc 2 193 1
 751 0020 00BF     		nop
 752 0022 0C37     		adds	r7, r7, #12
 753              	.LCFI60:
 754              		.cfi_def_cfa_offset 4
 755 0024 BD46     		mov	sp, r7
 756              	.LCFI61:
 757              		.cfi_def_cfa_register 13
 758              		@ sp needed
 759 0026 80BC     		pop	{r7}
 760              	.LCFI62:
 761              		.cfi_restore 7
 762              		.cfi_def_cfa_offset 0
 763 0028 7047     		bx	lr
 764              		.cfi_endproc
ARM GAS  /tmp/ccGBEXMv.s 			page 29


 765              	.LFE83:
 767              		.text
 768              	.Letext0:
 769              		.file 3 "/usr/share/gcc-arm-none-eabi/arm-none-eabi/include/machine/_default_types.h"
 770              		.file 4 "/usr/share/gcc-arm-none-eabi/arm-none-eabi/include/sys/_stdint.h"
 771              		.file 5 "Drivers/CMSIS/Include/core_cm3.h"
 772              		.file 6 "Drivers/CMSIS/Device/ST/STM32F1xx/Include/system_stm32f1xx.h"
 773              		.file 7 "Drivers/CMSIS/Device/ST/STM32F1xx/Include/stm32f103xb.h"
 774              		.file 8 "Drivers/CMSIS/Device/ST/STM32F1xx/Include/stm32f1xx.h"
ARM GAS  /tmp/ccGBEXMv.s 			page 30

