ARM GAS  /tmp/ccBiiO8O.s 			page 1


   1              		.cpu cortex-m3
   2              		.eabi_attribute 20, 1
   3              		.eabi_attribute 21, 1
   4              		.eabi_attribute 23, 3
   5              		.eabi_attribute 24, 1
   6              		.eabi_attribute 25, 1
   7              		.eabi_attribute 26, 1
   8              		.eabi_attribute 30, 6
   9              		.eabi_attribute 34, 1
  10              		.eabi_attribute 18, 4
  11              		.file	"sys_time.c"
  12              		.text
  13              	.Ltext0:
  14              		.cfi_sections	.debug_frame
  15              		.global	g_sysTotalTime
  16              		.section	.bss.g_sysTotalTime,"aw",%nobits
  17              		.align	3
  20              	g_sysTotalTime:
  21 0000 00000000 		.space	8
  21      00000000 
  22              		.section	.text.DelayMs,"ax",%progbits
  23              		.align	1
  24              		.global	DelayMs
  25              		.arch armv7-m
  26              		.syntax unified
  27              		.thumb
  28              		.thumb_func
  29              		.fpu softvfp
  31              	DelayMs:
  32              	.LFB7:
  33              		.file 1 "common/mcu-misc/independent/src/sys_time.c"
   1:common/mcu-misc/independent/src/sys_time.c **** #include "sys_time.h"
   2:common/mcu-misc/independent/src/sys_time.c **** 
   3:common/mcu-misc/independent/src/sys_time.c **** uint64_t g_sysTotalTime = 0; //系统时间,单位毫秒,不考虑溢出
   4:common/mcu-misc/independent/src/sys_time.c **** 
   5:common/mcu-misc/independent/src/sys_time.c **** void DelayMs(uint16_t ms)
   6:common/mcu-misc/independent/src/sys_time.c **** {
  34              		.loc 1 6 1
  35              		.cfi_startproc
  36              		@ args = 0, pretend = 0, frame = 16
  37              		@ frame_needed = 1, uses_anonymous_args = 0
  38              		@ link register save eliminated.
  39 0000 B0B4     		push	{r4, r5, r7}
  40              	.LCFI0:
  41              		.cfi_def_cfa_offset 12
  42              		.cfi_offset 4, -12
  43              		.cfi_offset 5, -8
  44              		.cfi_offset 7, -4
  45 0002 85B0     		sub	sp, sp, #20
  46              	.LCFI1:
  47              		.cfi_def_cfa_offset 32
  48 0004 00AF     		add	r7, sp, #0
  49              	.LCFI2:
  50              		.cfi_def_cfa_register 7
  51 0006 0346     		mov	r3, r0
  52 0008 FB80     		strh	r3, [r7, #6]	@ movhi
   7:common/mcu-misc/independent/src/sys_time.c ****     uint64_t targetTime;
ARM GAS  /tmp/ccBiiO8O.s 			page 2


   8:common/mcu-misc/independent/src/sys_time.c ****     targetTime = g_sysTotalTime + ms;
  53              		.loc 1 8 33
  54 000a F888     		ldrh	r0, [r7, #6]
  55 000c 4FF00001 		mov	r1, #0
  56 0010 0B4B     		ldr	r3, .L3
  57 0012 D3E90023 		ldrd	r2, [r3]
  58              		.loc 1 8 16
  59 0016 8418     		adds	r4, r0, r2
  60 0018 41EB0305 		adc	r5, r1, r3
  61 001c C7E90245 		strd	r4, [r7, #8]
   9:common/mcu-misc/independent/src/sys_time.c ****     while(g_sysTotalTime < targetTime)
  62              		.loc 1 9 10
  63 0020 00BF     		nop
  64              	.L2:
  65              		.loc 1 9 26 discriminator 1
  66 0022 074B     		ldr	r3, .L3
  67 0024 D3E90001 		ldrd	r0, [r3]
  68              		.loc 1 9 10 discriminator 1
  69 0028 D7E90223 		ldrd	r2, [r7, #8]
  70 002c 9942     		cmp	r1, r3
  71 002e 08BF     		it	eq
  72 0030 9042     		cmpeq	r0, r2
  73 0032 F6D3     		bcc	.L2
  10:common/mcu-misc/independent/src/sys_time.c ****     {
  11:common/mcu-misc/independent/src/sys_time.c **** 			
  12:common/mcu-misc/independent/src/sys_time.c ****     }
  13:common/mcu-misc/independent/src/sys_time.c **** }
  74              		.loc 1 13 1
  75 0034 00BF     		nop
  76 0036 00BF     		nop
  77 0038 1437     		adds	r7, r7, #20
  78              	.LCFI3:
  79              		.cfi_def_cfa_offset 12
  80 003a BD46     		mov	sp, r7
  81              	.LCFI4:
  82              		.cfi_def_cfa_register 13
  83              		@ sp needed
  84 003c B0BC     		pop	{r4, r5, r7}
  85              	.LCFI5:
  86              		.cfi_restore 7
  87              		.cfi_restore 5
  88              		.cfi_restore 4
  89              		.cfi_def_cfa_offset 0
  90 003e 7047     		bx	lr
  91              	.L4:
  92              		.align	2
  93              	.L3:
  94 0040 00000000 		.word	g_sysTotalTime
  95              		.cfi_endproc
  96              	.LFE7:
  98              		.section	.text.DelayUs,"ax",%progbits
  99              		.align	1
 100              		.global	DelayUs
 101              		.syntax unified
 102              		.thumb
 103              		.thumb_func
 104              		.fpu softvfp
ARM GAS  /tmp/ccBiiO8O.s 			page 3


 106              	DelayUs:
 107              	.LFB8:
  14:common/mcu-misc/independent/src/sys_time.c **** 
  15:common/mcu-misc/independent/src/sys_time.c **** 
  16:common/mcu-misc/independent/src/sys_time.c **** void DelayUs(uint16_t us)
  17:common/mcu-misc/independent/src/sys_time.c **** {
 108              		.loc 1 17 1
 109              		.cfi_startproc
 110              		@ args = 0, pretend = 0, frame = 16
 111              		@ frame_needed = 1, uses_anonymous_args = 0
 112              		@ link register save eliminated.
 113 0000 80B4     		push	{r7}
 114              	.LCFI6:
 115              		.cfi_def_cfa_offset 4
 116              		.cfi_offset 7, -4
 117 0002 85B0     		sub	sp, sp, #20
 118              	.LCFI7:
 119              		.cfi_def_cfa_offset 24
 120 0004 00AF     		add	r7, sp, #0
 121              	.LCFI8:
 122              		.cfi_def_cfa_register 7
 123 0006 0346     		mov	r3, r0
 124 0008 FB80     		strh	r3, [r7, #6]	@ movhi
  18:common/mcu-misc/independent/src/sys_time.c ****     int i;
  19:common/mcu-misc/independent/src/sys_time.c ****     for(i = 0; i < us; i++)
 125              		.loc 1 19 11
 126 000a 0023     		movs	r3, #0
 127 000c FB60     		str	r3, [r7, #12]
 128              		.loc 1 19 5
 129 000e 06E0     		b	.L6
 130              	.L7:
  20:common/mcu-misc/independent/src/sys_time.c ****     {
  21:common/mcu-misc/independent/src/sys_time.c ****         __asm volatile ("nop");
 131              		.loc 1 21 9 discriminator 3
 132              		.syntax unified
 133              	@ 21 "common/mcu-misc/independent/src/sys_time.c" 1
 134 0010 00BF     		nop
 135              	@ 0 "" 2
  22:common/mcu-misc/independent/src/sys_time.c ****         __asm volatile ("nop");
 136              		.loc 1 22 9 discriminator 3
 137              	@ 22 "common/mcu-misc/independent/src/sys_time.c" 1
 138 0012 00BF     		nop
 139              	@ 0 "" 2
  23:common/mcu-misc/independent/src/sys_time.c ****         __asm volatile ("nop");
 140              		.loc 1 23 9 discriminator 3
 141              	@ 23 "common/mcu-misc/independent/src/sys_time.c" 1
 142 0014 00BF     		nop
 143              	@ 0 "" 2
  24:common/mcu-misc/independent/src/sys_time.c ****         __asm volatile ("nop");
 144              		.loc 1 24 9 discriminator 3
 145              	@ 24 "common/mcu-misc/independent/src/sys_time.c" 1
 146 0016 00BF     		nop
 147              	@ 0 "" 2
  19:common/mcu-misc/independent/src/sys_time.c ****     {
 148              		.loc 1 19 25 discriminator 3
 149              		.thumb
 150              		.syntax unified
ARM GAS  /tmp/ccBiiO8O.s 			page 4


 151 0018 FB68     		ldr	r3, [r7, #12]
 152 001a 0133     		adds	r3, r3, #1
 153 001c FB60     		str	r3, [r7, #12]
 154              	.L6:
  19:common/mcu-misc/independent/src/sys_time.c ****     {
 155              		.loc 1 19 18 discriminator 1
 156 001e FB88     		ldrh	r3, [r7, #6]
  19:common/mcu-misc/independent/src/sys_time.c ****     {
 157              		.loc 1 19 5 discriminator 1
 158 0020 FA68     		ldr	r2, [r7, #12]
 159 0022 9A42     		cmp	r2, r3
 160 0024 F4DB     		blt	.L7
  25:common/mcu-misc/independent/src/sys_time.c ****     }
  26:common/mcu-misc/independent/src/sys_time.c **** }
 161              		.loc 1 26 1
 162 0026 00BF     		nop
 163 0028 00BF     		nop
 164 002a 1437     		adds	r7, r7, #20
 165              	.LCFI9:
 166              		.cfi_def_cfa_offset 4
 167 002c BD46     		mov	sp, r7
 168              	.LCFI10:
 169              		.cfi_def_cfa_register 13
 170              		@ sp needed
 171 002e 80BC     		pop	{r7}
 172              	.LCFI11:
 173              		.cfi_restore 7
 174              		.cfi_def_cfa_offset 0
 175 0030 7047     		bx	lr
 176              		.cfi_endproc
 177              	.LFE8:
 179              		.text
 180              	.Letext0:
 181              		.file 2 "/usr/share/gcc-arm-none-eabi/arm-none-eabi/include/machine/_default_types.h"
 182              		.file 3 "/usr/share/gcc-arm-none-eabi/arm-none-eabi/include/sys/_stdint.h"
 183              		.file 4 "/usr/share/gcc-arm-none-eabi/arm-none-eabi/include/sys/lock.h"
 184              		.file 5 "/usr/share/gcc-arm-none-eabi/arm-none-eabi/include/sys/_types.h"
 185              		.file 6 "/usr/share/gcc-arm-none-eabi/lib/gcc/arm-none-eabi/9.2.1/include/stddef.h"
 186              		.file 7 "/usr/share/gcc-arm-none-eabi/arm-none-eabi/include/sys/reent.h"
 187              		.file 8 "common/mcu-misc/independent/inc/sys_time.h"
ARM GAS  /tmp/ccBiiO8O.s 			page 5

